ARM GAS  /var/folders/ym/cl7zt4994p5_9n084fng6gl80000gn/T//ccxpWZpc.s 			page 1


   1              		.cpu cortex-m7
   2              		.eabi_attribute 27, 1	@ Tag_ABI_HardFP_use
   3              		.eabi_attribute 28, 1	@ Tag_ABI_VFP_args
   4              		.eabi_attribute 20, 1	@ Tag_ABI_FP_denormal
   5              		.eabi_attribute 21, 1	@ Tag_ABI_FP_exceptions
   6              		.eabi_attribute 23, 3	@ Tag_ABI_FP_number_model
   7              		.eabi_attribute 24, 1	@ Tag_ABI_align8_needed
   8              		.eabi_attribute 25, 1	@ Tag_ABI_align8_preserved
   9              		.eabi_attribute 26, 1	@ Tag_ABI_enum_size
  10              		.eabi_attribute 30, 2	@ Tag_ABI_optimization_goals
  11              		.eabi_attribute 34, 1	@ Tag_CPU_unaligned_access
  12              		.eabi_attribute 18, 4	@ Tag_ABI_PCS_wchar_t
  13              		.file	"main.c"
  14              	@ GNU C17 (GNU Tools for Arm Embedded Processors 9-2019-q4-major) version 9.2.1 20191025 (release) 
  15              	@	compiled by GNU C version 4.2.1 Compatible Apple LLVM 9.0.0 (clang-900.0.39.2), GMP version 6.1.0
  16              	
  17              	@ GGC heuristics: --param ggc-min-expand=100 --param ggc-min-heapsize=131072
  18              	@ options passed:  -I . -I . -I /Users/danny/Developer/PlaydateSDK/C_API
  19              	@ -imultilib thumb/v7e-m+fp/hard
  20              	@ -iprefix /usr/local/playdate/gcc-arm-none-eabi-9-2019-q4-major/bin/../lib/gcc/arm-none-eabi/9.2.1
  21              	@ -isysroot /usr/local/playdate/gcc-arm-none-eabi-9-2019-q4-major/bin/../arm-none-eabi
  22              	@ -MD build/src/main.d -MF build/dep/main.o.d -MP -MQ build/src/main.o
  23              	@ -D__USES_INITFINI__ -D __FPU_USED=1 -D TARGET_PLAYDATE=1
  24              	@ -D TARGET_EXTENSION=1 src/main.c -mthumb -mcpu=cortex-m7 -mfloat-abi=hard
  25              	@ -mfpu=fpv5-sp-d16 -mword-relocations -march=armv7e-m+fpv5
  26              	@ -auxbase-strip build/src/main.o -g3 -gdwarf-2 -O2 -Wall -Wno-unused
  27              	@ -Wstrict-prototypes -Wno-unknown-pragmas -Wdouble-promotion
  28              	@ -falign-functions=16 -fomit-frame-pointer -fverbose-asm -fno-common
  29              	@ -ffunction-sections -fdata-sections
  30              	@ options enabled:  -faggressive-loop-optimizations -falign-functions
  31              	@ -falign-jumps -falign-labels -falign-loops -fassume-phsa -fauto-inc-dec
  32              	@ -fbranch-count-reg -fcaller-saves -fcombine-stack-adjustments
  33              	@ -fcompare-elim -fcprop-registers -fcrossjumping -fcse-follow-jumps
  34              	@ -fdata-sections -fdefer-pop -fdelete-null-pointer-checks -fdevirtualize
  35              	@ -fdevirtualize-speculatively -fdwarf2-cfi-asm -fearly-inlining
  36              	@ -feliminate-unused-debug-types -fexpensive-optimizations
  37              	@ -fforward-propagate -ffp-int-builtin-inexact -ffunction-cse
  38              	@ -ffunction-sections -fgcse -fgcse-lm -fgnu-runtime -fgnu-unique
  39              	@ -fguess-branch-probability -fhoist-adjacent-loads -fident -fif-conversion
  40              	@ -fif-conversion2 -findirect-inlining -finline -finline-atomics
  41              	@ -finline-functions-called-once -finline-small-functions -fipa-bit-cp
  42              	@ -fipa-cp -fipa-icf -fipa-icf-functions -fipa-icf-variables -fipa-profile
  43              	@ -fipa-pure-const -fipa-ra -fipa-reference -fipa-reference-addressable
  44              	@ -fipa-sra -fipa-stack-alignment -fipa-vrp -fira-hoist-pressure
  45              	@ -fira-share-save-slots -fira-share-spill-slots
  46              	@ -fisolate-erroneous-paths-dereference -fivopts -fkeep-static-consts
  47              	@ -fleading-underscore -flifetime-dse -flra-remat -flto-odr-type-merging
  48              	@ -fmath-errno -fmerge-constants -fmerge-debug-strings
  49              	@ -fmove-loop-invariants -fomit-frame-pointer -foptimize-sibling-calls
  50              	@ -foptimize-strlen -fpartial-inlining -fpeephole -fpeephole2 -fplt
  51              	@ -fprefetch-loop-arrays -freg-struct-return -freorder-blocks
  52              	@ -freorder-functions -frerun-cse-after-loop
  53              	@ -fsched-critical-path-heuristic -fsched-dep-count-heuristic
  54              	@ -fsched-group-heuristic -fsched-interblock -fsched-last-insn-heuristic
  55              	@ -fsched-pressure -fsched-rank-heuristic -fsched-spec
  56              	@ -fsched-spec-insn-heuristic -fsched-stalled-insns-dep -fschedule-insns
  57              	@ -fschedule-insns2 -fsection-anchors -fsemantic-interposition
ARM GAS  /var/folders/ym/cl7zt4994p5_9n084fng6gl80000gn/T//ccxpWZpc.s 			page 2


  58              	@ -fshow-column -fshrink-wrap -fshrink-wrap-separate -fsigned-zeros
  59              	@ -fsplit-ivs-in-unroller -fsplit-wide-types -fssa-backprop -fssa-phiopt
  60              	@ -fstdarg-opt -fstore-merging -fstrict-aliasing
  61              	@ -fstrict-volatile-bitfields -fsync-libcalls -fthread-jumps
  62              	@ -ftoplevel-reorder -ftrapping-math -ftree-bit-ccp -ftree-builtin-call-dce
  63              	@ -ftree-ccp -ftree-ch -ftree-coalesce-vars -ftree-copy-prop -ftree-cselim
  64              	@ -ftree-dce -ftree-dominator-opts -ftree-dse -ftree-forwprop -ftree-fre
  65              	@ -ftree-loop-if-convert -ftree-loop-im -ftree-loop-ivcanon
  66              	@ -ftree-loop-optimize -ftree-parallelize-loops= -ftree-phiprop -ftree-pre
  67              	@ -ftree-pta -ftree-reassoc -ftree-scev-cprop -ftree-sink -ftree-slsr
  68              	@ -ftree-sra -ftree-switch-conversion -ftree-tail-merge -ftree-ter
  69              	@ -ftree-vrp -funit-at-a-time -fvar-tracking -fvar-tracking-assignments
  70              	@ -fverbose-asm -fzero-initialized-in-bss -masm-syntax-unified -mbe32
  71              	@ -mlittle-endian -mpic-data-is-text-relative -msched-prolog -mthumb
  72              	@ -munaligned-access -mvectorize-with-neon-quad -mword-relocations
  73              	
  74              		.text
  75              	.Ltext0:
  76              		.cfi_sections	.debug_frame
  77              		.section	.rodata.SaveSettings.str1.4,"aMS",%progbits,1
  78              		.align	2
  79              	.LC0:
  80 0000 73657474 		.ascii	"settings.dat\000"
  80      696E6773 
  80      2E646174 
  80      00
  81              		.section	.text.SaveSettings,"ax",%progbits
  82              		.align	1
  83              		.p2align 4,,15
  84              		.arch armv7e-m
  85              		.syntax unified
  86              		.thumb
  87              		.thumb_func
  88              		.fpu fpv5-sp-d16
  89              		.type	SaveSettings, %function
  90              	SaveSettings:
  91              	.LFB15:
  92              		.file 1 "src/main.c"
   1:src/main.c    **** #include "pd_api.h"
   2:src/main.c    **** #include <stdint.h>
   3:src/main.c    **** #include <string.h>
   4:src/main.c    **** #include <stdio.h>
   5:src/main.c    **** #include <stdlib.h>
   6:src/main.c    **** #include <math.h>
   7:src/main.c    **** 
   8:src/main.c    **** static PlaydateAPI* pd = NULL;
   9:src/main.c    **** 
  10:src/main.c    **** static LCDBitmap* numBmp[10] = {0};
  11:src/main.c    **** static LCDBitmap* frameBmp = NULL;
  12:src/main.c    **** static LCDBitmap* colonBmp = NULL;
  13:src/main.c    **** static LCDFont* uiFont = NULL;
  14:src/main.c    **** static int cardW = 72;
  15:src/main.c    **** static int fullH = 96;
  16:src/main.c    **** static int halfH = 48;
  17:src/main.c    **** 
  18:src/main.c    **** #define DIGIT_COUNT 4
  19:src/main.c    **** #define FLIP_SPEED 4.0f   // flips per second (~0.25s)
ARM GAS  /var/folders/ym/cl7zt4994p5_9n084fng6gl80000gn/T//ccxpWZpc.s 			page 3


  20:src/main.c    **** #define DIGIT_SCALE 1.0f
  21:src/main.c    **** 
  22:src/main.c    **** // µ»ÅõĖ¬µĢ░ÕŁŚõĮŹńÜäń┐╗ńēīńŖČµĆü
  23:src/main.c    **** typedef struct DigitFlip {
  24:src/main.c    ****     char value;        // ÕĮōÕēŹµśŠńż║ńÜäÕŁŚń¼”
  25:src/main.c    ****     char prev;         // ń┐╗ńēīÕēŹńÜäÕŁŚń¼”
  26:src/main.c    ****     float progress;    // 0..1’╝īń┐╗ńēīÕŖ©ńö╗Ķ┐øÕ║”
  27:src/main.c    ****     int flipping;      // µś»ÕÉ”µŁŻÕ£©ń┐╗ńēī
  28:src/main.c    ****     int dir;           // ń┐╗ńēīµ¢╣ÕÉæ’╝Ü1 = ÕÉæõĖŗ’╝łÕĆÆµĢ░’╝ē’╝ī-1 = ÕÉæõĖŖ’╝łÕó×ÕŖĀµŚČķŚ┤’╝ē
  29:src/main.c    **** } DigitFlip;
  30:src/main.c    **** 
  31:src/main.c    **** static DigitFlip digits[DIGIT_COUNT];
  32:src/main.c    **** 
  33:src/main.c    **** typedef enum TimerState {
  34:src/main.c    ****     TIMER_READY,     // ÕćåÕżćÕ╝ĆÕ¦ŗ’╝īĶ┐śµ▓ĪĶ┐ÉĶĪī
  35:src/main.c    ****     TIMER_RUNNING,   // µŁŻÕ£©ÕĆÆĶ«ĪµŚČ
  36:src/main.c    ****     TIMER_PAUSED,    // µÜéÕü£õĖŁ
  37:src/main.c    ****     TIMER_FINISHED   // ÕĘ▓ń╗ōµØ¤’╝īµśŠńż║ 00:00
  38:src/main.c    **** } TimerState;
  39:src/main.c    **** 
  40:src/main.c    **** // Timer ńÜäńŖČµĆü
  41:src/main.c    **** typedef struct Timer {
  42:src/main.c    ****     float totalSeconds;   // µĆ╗µŚČķĢ┐’╝īµ»öÕ”é 25 * 60
  43:src/main.c    ****     float secondsLeft;    // ÕĮōÕēŹÕē®õĮÖń¦ÆµĢ░
  44:src/main.c    ****     TimerState state;     // Ķ«ĪµŚČÕÖ©ńŖČµĆü
  45:src/main.c    **** } Timer;
  46:src/main.c    **** 
  47:src/main.c    **** static Timer timer;
  48:src/main.c    **** 
  49:src/main.c    **** // õĖŖõĖĆÕĖ¦ńÜäµŚČķŚ┤’╝īńö©µØźĶ«Īń«Ś dt
  50:src/main.c    **** static float lastTime = 0.0f;
  51:src/main.c    **** static float crankOffset = 0.0f;
  52:src/main.c    **** static int time = 5;
  53:src/main.c    **** 
  54:src/main.c    **** // ÕĖĖńö©µŚČķĢ┐ķóäĶ«Š’╝łÕłåķÆ¤’╝ē’╝īõĖŖ/õĖŗµ¢╣ÕÉæķö«ÕłćµŹó
  55:src/main.c    **** static const int timePresets[] = { 1, 3, 5, 10, 15, 25, 45, 60 };
  56:src/main.c    **** #define PRESET_COUNT (int)(sizeof(timePresets) / sizeof(timePresets[0]))
  57:src/main.c    **** 
  58:src/main.c    **** // µÜŚĶē▓µ©ĪÕ╝Å’╝łÕÅŹńøĖµśŠńż║’╝ē
  59:src/main.c    **** static int darkMode = 0;
  60:src/main.c    **** static PDMenuItem* darkModeItem = NULL;
  61:src/main.c    **** 
  62:src/main.c    **** // Ķ┐øÕ║”µØĪµĀĘÕ╝Å’╝Ü0=µ░┤µ│óµØĪ’╝ī1=µĢ┤Õ▒Åµ░┤õĮŹõĖŗķÖŹ’╝ī2=Õ£åńÄ»’╝ī3=õĖŗķø¬
  63:src/main.c    **** enum BarStyle { BAR_WATER = 0, BAR_FLOOD = 1, BAR_RING = 2, BAR_SNOW = 3 };
  64:src/main.c    **** static int barStyle = BAR_WATER;
  65:src/main.c    **** static PDMenuItem* barStyleItem = NULL;
  66:src/main.c    **** 
  67:src/main.c    **** // õĖŗķø¬µĀĘÕ╝Å’╝Üķ╗æÕż£ń®║ + ńÖĮķø¬ĶŖ▒ķŻśĶÉĮ + Õ║Ģķā©ń¦»ķø¬ÕĀåń¦»’╝łń╗ōµØ¤µŚČķō║µ╗ĪÕģ©Õ▒Å’╝ē
  68:src/main.c    **** #define SNOW_COUNT 200
  69:src/main.c    **** typedef struct SnowFlake {
  70:src/main.c    ****     float x, y;       // õĮŹńĮ«
  71:src/main.c    ****     float speed;      // õĖŗĶÉĮķĆ¤Õ║” (px/s)
  72:src/main.c    ****     float drift;      // µ░┤Õ╣│µ╝éń¦╗ńøĖõĮŹ
  73:src/main.c    ****     float driftAmp;   // µ╝éń¦╗Õ╣ģÕ║”
  74:src/main.c    ****     int size;         // 2 µł¢ 3 px
  75:src/main.c    **** } SnowFlake;
  76:src/main.c    **** static SnowFlake snow[SNOW_COUNT];
ARM GAS  /var/folders/ym/cl7zt4994p5_9n084fng6gl80000gn/T//ccxpWZpc.s 			page 4


  77:src/main.c    **** static int snowInited = 0;
  78:src/main.c    **** 
  79:src/main.c    **** // ÕĮōÕēŹµĢ░ÕŁŚń╝®µöŠ’╝łÕ£åńÄ»µĀĘÕ╝ÅõĖŗń╝®Õ░Åõ╗źõŠ┐Ķó½Õż¦Õ£åńÄ»ÕīģõĮÅ’╝ē
  80:src/main.c    **** static float digitScale = DIGIT_SCALE;
  81:src/main.c    **** 
  82:src/main.c    **** // ń╗ōµØ¤µÅÉķåÆ’╝ÜķŚ¬Õ▒Å + µÅÉńż║ķ¤│
  83:src/main.c    **** #define FLASH_DURATION 2.0f
  84:src/main.c    **** #define FLASH_RATE 6.0f
  85:src/main.c    **** #define CHIME_GAP 0.13f
  86:src/main.c    **** static float flashTimer = 0.0f;
  87:src/main.c    **** static int chimeStep = 0;
  88:src/main.c    **** static float chimeTimer = 0.0f;
  89:src/main.c    **** static PDSynth* finishSynth = NULL;
  90:src/main.c    **** static const float chimeNotes[3] = { 523.25f, 659.25f, 783.99f }; // C5 E5 G5
  91:src/main.c    **** 
  92:src/main.c    **** // µÜéÕü£µīćńż║ÕÖ©’╝ÜķŚ¬ńāüĶ«ĪµŚČ
  93:src/main.c    **** #define PAUSE_BLINK_PERIOD 1.0f   // õĖĆõĖ¬Õ«īµĢ┤ķŚ¬ńāüÕæ©µ£¤’╝łń¦Æ’╝ē
  94:src/main.c    **** static float pauseBlink = 0.0f;
  95:src/main.c    **** 
  96:src/main.c    **** // õ┐ØÕŁśĶ«ŠńĮ«’╝łµŚČķĢ┐ + µÜŚĶē▓µ©ĪÕ╝Å + Ķ┐øÕ║”µØĪµĀĘÕ╝Å’╝ēÕł░µĢ░µŹ«ńø«ÕĮĢ
  97:src/main.c    **** static void SaveSettings(void)
  98:src/main.c    **** {
  93              		.loc 1 98 1 view -0
  94              		.cfi_startproc
  95              		@ args = 0, pretend = 0, frame = 16
  96              		@ frame_needed = 0, uses_anonymous_args = 0
  99:src/main.c    ****     SDFile* f = pd->file->open("settings.dat", kFileWrite);
  97              		.loc 1 99 5 view .LVU1
  98              	@ src/main.c:98: {
  98:src/main.c    ****     SDFile* f = pd->file->open("settings.dat", kFileWrite);
  99              		.loc 1 98 1 is_stmt 0 view .LVU2
 100 0000 F0B5     		push	{r4, r5, r6, r7, lr}	@
 101              	.LCFI0:
 102              		.cfi_def_cfa_offset 20
 103              		.cfi_offset 4, -20
 104              		.cfi_offset 5, -16
 105              		.cfi_offset 6, -12
 106              		.cfi_offset 7, -8
 107              		.cfi_offset 14, -4
 108              	@ src/main.c:99:     SDFile* f = pd->file->open("settings.dat", kFileWrite);
 109              		.loc 1 99 19 view .LVU3
 110 0002 114D     		ldr	r5, .L8	@ tmp124,
 111              	@ src/main.c:98: {
  98:src/main.c    ****     SDFile* f = pd->file->open("settings.dat", kFileWrite);
 112              		.loc 1 98 1 view .LVU4
 113 0004 85B0     		sub	sp, sp, #20	@,,
 114              	.LCFI1:
 115              		.cfi_def_cfa_offset 40
 116              	@ src/main.c:99:     SDFile* f = pd->file->open("settings.dat", kFileWrite);
 117              		.loc 1 99 17 view .LVU5
 118 0006 0421     		movs	r1, #4	@,
 119 0008 1048     		ldr	r0, .L8+4	@,
 120              	@ src/main.c:99:     SDFile* f = pd->file->open("settings.dat", kFileWrite);
 121              		.loc 1 99 19 view .LVU6
 122 000a 2B68     		ldr	r3, [r5]	@ pd, pd
 123              	@ src/main.c:99:     SDFile* f = pd->file->open("settings.dat", kFileWrite);
 124              		.loc 1 99 25 view .LVU7
ARM GAS  /var/folders/ym/cl7zt4994p5_9n084fng6gl80000gn/T//ccxpWZpc.s 			page 5


 125 000c 5B68     		ldr	r3, [r3, #4]	@ pd.82_1->file, pd.82_1->file
 126              	@ src/main.c:99:     SDFile* f = pd->file->open("settings.dat", kFileWrite);
 127              		.loc 1 99 17 view .LVU8
 128 000e 9B69     		ldr	r3, [r3, #24]	@ _2->open, _2->open
 129 0010 9847     		blx	r3		@ _2->open
 130              	.LVL0:
 100:src/main.c    ****     if (f) {
 131              		.loc 1 100 5 is_stmt 1 view .LVU9
 132              	@ src/main.c:100:     if (f) {
 133              		.loc 1 100 8 is_stmt 0 view .LVU10
 134 0012 B0B1     		cbz	r0, .L1	@ f,
 135              	.LBB69:
 101:src/main.c    ****         int32_t data[3] = { time, darkMode, barStyle };
 136              		.loc 1 101 9 is_stmt 1 view .LVU11
 137              	@ src/main.c:101:         int32_t data[3] = { time, darkMode, barStyle };
 138              		.loc 1 101 17 is_stmt 0 view .LVU12
 139 0014 0E4F     		ldr	r7, .L8+8	@ tmp128,
 140              	@ src/main.c:102:         pd->file->write(f, data, sizeof(data));
 102:src/main.c    ****         pd->file->write(f, data, sizeof(data));
 141              		.loc 1 102 9 view .LVU13
 142 0016 0C22     		movs	r2, #12	@,
 143              	@ src/main.c:101:         int32_t data[3] = { time, darkMode, barStyle };
 101:src/main.c    ****         int32_t data[3] = { time, darkMode, barStyle };
 144              		.loc 1 101 17 view .LVU14
 145 0018 0E4E     		ldr	r6, .L8+12	@ tmp130,
 146              	@ src/main.c:102:         pd->file->write(f, data, sizeof(data));
 147              		.loc 1 102 9 view .LVU15
 148 001a 01A9     		add	r1, sp, #4	@,,
 149              	@ src/main.c:101:         int32_t data[3] = { time, darkMode, barStyle };
 101:src/main.c    ****         int32_t data[3] = { time, darkMode, barStyle };
 150              		.loc 1 101 17 view .LVU16
 151 001c 0E4B     		ldr	r3, .L8+16	@ tmp132,
 152 001e 0446     		mov	r4, r0	@ f, tmp143
 153 0020 D7F800C0 		ldr	ip, [r7]	@ time, time
 154 0024 3768     		ldr	r7, [r6]	@ darkMode, darkMode
 155 0026 1E68     		ldr	r6, [r3]	@ barStyle, barStyle
 156              	@ src/main.c:102:         pd->file->write(f, data, sizeof(data));
 157              		.loc 1 102 11 view .LVU17
 158 0028 2B68     		ldr	r3, [r5]	@ pd, pd
 159              	@ src/main.c:101:         int32_t data[3] = { time, darkMode, barStyle };
 101:src/main.c    ****         int32_t data[3] = { time, darkMode, barStyle };
 160              		.loc 1 101 17 view .LVU18
 161 002a CDF804C0 		str	ip, [sp, #4]	@ time, data
 162              	@ src/main.c:102:         pd->file->write(f, data, sizeof(data));
 163              		.loc 1 102 17 view .LVU19
 164 002e 5B68     		ldr	r3, [r3, #4]	@ pd.86_7->file, pd.86_7->file
 165              	@ src/main.c:101:         int32_t data[3] = { time, darkMode, barStyle };
 101:src/main.c    ****         int32_t data[3] = { time, darkMode, barStyle };
 166              		.loc 1 101 17 view .LVU20
 167 0030 CDE90276 		strd	r7, r6, [sp, #8]	@ darkMode, barStyle,,
 168              		.loc 1 102 9 is_stmt 1 view .LVU21
 169 0034 5B6A     		ldr	r3, [r3, #36]	@ _8->write, _8->write
 170 0036 9847     		blx	r3		@ _8->write
 171              	.LVL1:
 103:src/main.c    ****         pd->file->close(f);
 172              		.loc 1 103 9 view .LVU22
 173              	@ src/main.c:103:         pd->file->close(f);
ARM GAS  /var/folders/ym/cl7zt4994p5_9n084fng6gl80000gn/T//ccxpWZpc.s 			page 6


 174              		.loc 1 103 11 is_stmt 0 view .LVU23
 175 0038 2B68     		ldr	r3, [r5]	@ pd, pd
 176              	@ src/main.c:103:         pd->file->close(f);
 177              		.loc 1 103 9 view .LVU24
 178 003a 2046     		mov	r0, r4	@, f
 179              	@ src/main.c:103:         pd->file->close(f);
 180              		.loc 1 103 17 view .LVU25
 181 003c 5B68     		ldr	r3, [r3, #4]	@ pd.87_10->file, pd.87_10->file
 182              	@ src/main.c:103:         pd->file->close(f);
 183              		.loc 1 103 9 view .LVU26
 184 003e DB69     		ldr	r3, [r3, #28]	@ _11->close, _11->close
 185 0040 9847     		blx	r3		@ _11->close
 186              	.LVL2:
 187              	.L1:
 188              		.loc 1 103 9 view .LVU27
 189              	.LBE69:
 190              	@ src/main.c:105: }
 104:src/main.c    ****     }
 105:src/main.c    **** }
 191              		.loc 1 105 1 view .LVU28
 192 0042 05B0     		add	sp, sp, #20	@,,
 193              	.LCFI2:
 194              		.cfi_def_cfa_offset 20
 195              		@ sp needed	@
 196 0044 F0BD     		pop	{r4, r5, r6, r7, pc}	@
 197              	.L9:
 198 0046 00BF     		.align	2
 199              	.L8:
 200 0048 00000000 		.word	.LANCHOR0
 201 004c 00000000 		.word	.LC0
 202 0050 00000000 		.word	.LANCHOR1
 203 0054 00000000 		.word	.LANCHOR2
 204 0058 00000000 		.word	.LANCHOR3
 205              		.cfi_endproc
 206              	.LFE15:
 207              		.size	SaveSettings, .-SaveSettings
 208              		.section	.text.DarkModeCallback,"ax",%progbits
 209              		.align	1
 210              		.p2align 4,,15
 211              		.syntax unified
 212              		.thumb
 213              		.thumb_func
 214              		.fpu fpv5-sp-d16
 215              		.type	DarkModeCallback, %function
 216              	DarkModeCallback:
 217              	.LVL3:
 218              	.LFB17:
 106:src/main.c    **** 
 107:src/main.c    **** // Ķ»╗ÕÅ¢õĖŖµ¼Īõ┐ØÕŁśńÜäĶ«ŠńĮ«
 108:src/main.c    **** static void LoadSettings(void)
 109:src/main.c    **** {
 110:src/main.c    ****     SDFile* f = pd->file->open("settings.dat", kFileReadData);
 111:src/main.c    ****     if (f) {
 112:src/main.c    ****         int32_t data[3] = { 0, 0, 0 };
 113:src/main.c    ****         int n = pd->file->read(f, data, sizeof(data));
 114:src/main.c    ****         if (n >= (int)(2 * sizeof(int32_t))) {
 115:src/main.c    ****             if (data[0] >= 1) time = data[0];
ARM GAS  /var/folders/ym/cl7zt4994p5_9n084fng6gl80000gn/T//ccxpWZpc.s 			page 7


 116:src/main.c    ****             darkMode = data[1] ? 1 : 0;
 117:src/main.c    ****         }
 118:src/main.c    ****         if (n >= (int)(3 * sizeof(int32_t))) {
 119:src/main.c    ****             if (data[2] >= 0 && data[2] <= 3) barStyle = data[2];
 120:src/main.c    ****         }
 121:src/main.c    ****         pd->file->close(f);
 122:src/main.c    ****     }
 123:src/main.c    **** }
 124:src/main.c    **** 
 125:src/main.c    **** // ĶÅ£ÕŹĢÕø×Ķ░ā’╝ÜÕłćµŹóµÜŚĶē▓µ©ĪÕ╝Å
 126:src/main.c    **** static void DarkModeCallback(void* userdata)
 127:src/main.c    **** {
 219              		.loc 1 127 1 is_stmt 1 view -0
 220              		.cfi_startproc
 221              		@ args = 0, pretend = 0, frame = 0
 222              		@ frame_needed = 0, uses_anonymous_args = 0
 128:src/main.c    ****     (void)userdata;
 223              		.loc 1 128 5 view .LVU30
 129:src/main.c    ****     darkMode = pd->system->getMenuItemValue(darkModeItem);
 224              		.loc 1 129 5 view .LVU31
 225              	@ src/main.c:127: {
 127:src/main.c    ****     (void)userdata;
 226              		.loc 1 127 1 is_stmt 0 view .LVU32
 227 0000 10B5     		push	{r4, lr}	@
 228              	.LCFI3:
 229              		.cfi_def_cfa_offset 8
 230              		.cfi_offset 4, -8
 231              		.cfi_offset 14, -4
 232              	@ src/main.c:129:     darkMode = pd->system->getMenuItemValue(darkModeItem);
 233              		.loc 1 129 18 view .LVU33
 234 0002 084C     		ldr	r4, .L12	@ tmp121,
 235              	@ src/main.c:129:     darkMode = pd->system->getMenuItemValue(darkModeItem);
 236              		.loc 1 129 16 view .LVU34
 237 0004 084A     		ldr	r2, .L12+4	@ tmp119,
 238              	@ src/main.c:129:     darkMode = pd->system->getMenuItemValue(darkModeItem);
 239              		.loc 1 129 18 view .LVU35
 240 0006 2368     		ldr	r3, [r4]	@ pd, pd
 241              	@ src/main.c:129:     darkMode = pd->system->getMenuItemValue(darkModeItem);
 242              		.loc 1 129 16 view .LVU36
 243 0008 1068     		ldr	r0, [r2]	@, darkModeItem
 244              	.LVL4:
 245              	@ src/main.c:129:     darkMode = pd->system->getMenuItemValue(darkModeItem);
 246              		.loc 1 129 26 view .LVU37
 247 000a 1B68     		ldr	r3, [r3]	@ pd.188_1->system, pd.188_1->system
 248              	@ src/main.c:129:     darkMode = pd->system->getMenuItemValue(darkModeItem);
 249              		.loc 1 129 16 view .LVU38
 250 000c 1B6E     		ldr	r3, [r3, #96]	@ _2->getMenuItemValue, _2->getMenuItemValue
 251 000e 9847     		blx	r3		@ _2->getMenuItemValue
 252              	.LVL5:
 253              	@ src/main.c:130:     pd->display->setInverted(darkMode);
 130:src/main.c    ****     pd->display->setInverted(darkMode);
 254              		.loc 1 130 7 view .LVU39
 255 0010 2368     		ldr	r3, [r4]	@ pd, pd
 256              	@ src/main.c:129:     darkMode = pd->system->getMenuItemValue(darkModeItem);
 129:src/main.c    ****     darkMode = pd->system->getMenuItemValue(darkModeItem);
 257              		.loc 1 129 14 view .LVU40
 258 0012 064A     		ldr	r2, .L12+8	@ tmp125,
ARM GAS  /var/folders/ym/cl7zt4994p5_9n084fng6gl80000gn/T//ccxpWZpc.s 			page 8


 259              	@ src/main.c:130:     pd->display->setInverted(darkMode);
 260              		.loc 1 130 16 view .LVU41
 261 0014 1B69     		ldr	r3, [r3, #16]	@ pd.190_6->display, pd.190_6->display
 262              	@ src/main.c:129:     darkMode = pd->system->getMenuItemValue(darkModeItem);
 129:src/main.c    ****     darkMode = pd->system->getMenuItemValue(darkModeItem);
 263              		.loc 1 129 14 view .LVU42
 264 0016 1060     		str	r0, [r2]	@ tmp130, darkMode
 265              		.loc 1 130 5 is_stmt 1 view .LVU43
 266 0018 DB68     		ldr	r3, [r3, #12]	@ _7->setInverted, _7->setInverted
 267 001a 9847     		blx	r3		@ _7->setInverted
 268              	.LVL6:
 131:src/main.c    ****     SaveSettings();
 269              		.loc 1 131 5 view .LVU44
 270              	@ src/main.c:132: }
 132:src/main.c    **** }
 271              		.loc 1 132 1 is_stmt 0 view .LVU45
 272 001c BDE81040 		pop	{r4, lr}	@
 273              	.LCFI4:
 274              		.cfi_restore 14
 275              		.cfi_restore 4
 276              		.cfi_def_cfa_offset 0
 277              	@ src/main.c:131:     SaveSettings();
 131:src/main.c    ****     SaveSettings();
 278              		.loc 1 131 5 view .LVU46
 279 0020 FFF7FEBF 		b	SaveSettings		@
 280              	.LVL7:
 281              	.L13:
 282              		.align	2
 283              	.L12:
 284 0024 00000000 		.word	.LANCHOR0
 285 0028 00000000 		.word	.LANCHOR4
 286 002c 00000000 		.word	.LANCHOR2
 287              		.cfi_endproc
 288              	.LFE17:
 289              		.size	DarkModeCallback, .-DarkModeCallback
 290              		.section	.text.BarStyleCallback,"ax",%progbits
 291              		.align	1
 292              		.p2align 4,,15
 293              		.syntax unified
 294              		.thumb
 295              		.thumb_func
 296              		.fpu fpv5-sp-d16
 297              		.type	BarStyleCallback, %function
 298              	BarStyleCallback:
 299              	.LVL8:
 300              	.LFB18:
 133:src/main.c    **** 
 134:src/main.c    **** // ĶÅ£ÕŹĢÕø×Ķ░ā’╝ÜÕłćµŹóĶ┐øÕ║”µØĪµĀĘÕ╝Å
 135:src/main.c    **** static void BarStyleCallback(void* userdata)
 136:src/main.c    **** {
 301              		.loc 1 136 1 is_stmt 1 view -0
 302              		.cfi_startproc
 303              		@ args = 0, pretend = 0, frame = 0
 304              		@ frame_needed = 0, uses_anonymous_args = 0
 137:src/main.c    ****     (void)userdata;
 305              		.loc 1 137 5 view .LVU48
 138:src/main.c    ****     barStyle = pd->system->getMenuItemValue(barStyleItem);
ARM GAS  /var/folders/ym/cl7zt4994p5_9n084fng6gl80000gn/T//ccxpWZpc.s 			page 9


 306              		.loc 1 138 5 view .LVU49
 307              	@ src/main.c:136: {
 136:src/main.c    ****     (void)userdata;
 308              		.loc 1 136 1 is_stmt 0 view .LVU50
 309 0000 08B5     		push	{r3, lr}	@
 310              	.LCFI5:
 311              		.cfi_def_cfa_offset 8
 312              		.cfi_offset 3, -8
 313              		.cfi_offset 14, -4
 314              	@ src/main.c:138:     barStyle = pd->system->getMenuItemValue(barStyleItem);
 315              		.loc 1 138 18 view .LVU51
 316 0002 064B     		ldr	r3, .L16	@ tmp118,
 317              	@ src/main.c:138:     barStyle = pd->system->getMenuItemValue(barStyleItem);
 318              		.loc 1 138 16 view .LVU52
 319 0004 064A     		ldr	r2, .L16+4	@ tmp116,
 320              	@ src/main.c:138:     barStyle = pd->system->getMenuItemValue(barStyleItem);
 321              		.loc 1 138 18 view .LVU53
 322 0006 1B68     		ldr	r3, [r3]	@ pd, pd
 323              	@ src/main.c:138:     barStyle = pd->system->getMenuItemValue(barStyleItem);
 324              		.loc 1 138 16 view .LVU54
 325 0008 1068     		ldr	r0, [r2]	@, barStyleItem
 326              	.LVL9:
 327              	@ src/main.c:138:     barStyle = pd->system->getMenuItemValue(barStyleItem);
 328              		.loc 1 138 26 view .LVU55
 329 000a 1B68     		ldr	r3, [r3]	@ pd.186_1->system, pd.186_1->system
 330              	@ src/main.c:138:     barStyle = pd->system->getMenuItemValue(barStyleItem);
 331              		.loc 1 138 16 view .LVU56
 332 000c 1B6E     		ldr	r3, [r3, #96]	@ _2->getMenuItemValue, _2->getMenuItemValue
 333 000e 9847     		blx	r3		@ _2->getMenuItemValue
 334              	.LVL10:
 335              	@ src/main.c:138:     barStyle = pd->system->getMenuItemValue(barStyleItem);
 336              		.loc 1 138 14 view .LVU57
 337 0010 044B     		ldr	r3, .L16+8	@ tmp122,
 338 0012 1860     		str	r0, [r3]	@ tmp123, barStyle
 139:src/main.c    ****     SaveSettings();
 339              		.loc 1 139 5 is_stmt 1 view .LVU58
 340              	@ src/main.c:140: }
 140:src/main.c    **** }
 341              		.loc 1 140 1 is_stmt 0 view .LVU59
 342 0014 BDE80840 		pop	{r3, lr}	@
 343              	.LCFI6:
 344              		.cfi_restore 14
 345              		.cfi_restore 3
 346              		.cfi_def_cfa_offset 0
 347              	@ src/main.c:139:     SaveSettings();
 139:src/main.c    ****     SaveSettings();
 348              		.loc 1 139 5 view .LVU60
 349 0018 FFF7FEBF 		b	SaveSettings		@
 350              	.LVL11:
 351              	.L17:
 352              		.align	2
 353              	.L16:
 354 001c 00000000 		.word	.LANCHOR0
 355 0020 00000000 		.word	.LANCHOR5
 356 0024 00000000 		.word	.LANCHOR3
 357              		.cfi_endproc
 358              	.LFE18:
ARM GAS  /var/folders/ym/cl7zt4994p5_9n084fng6gl80000gn/T//ccxpWZpc.s 			page 10


 359              		.size	BarStyleCallback, .-BarStyleCallback
 360              		.section	.text.DrawCard,"ax",%progbits
 361              		.align	1
 362              		.p2align 4,,15
 363              		.syntax unified
 364              		.thumb
 365              		.thumb_func
 366              		.fpu fpv5-sp-d16
 367              		.type	DrawCard, %function
 368              	DrawCard:
 369              	.LVL12:
 370              	.LFB27:
 141:src/main.c    **** 
 142:src/main.c    **** // Ķ«ĪµŚČń╗ōµØ¤’╝ÜĶ¦”ÕÅæķŚ¬Õ▒Å + µÆŁµöŠµÅÉńż║ķ¤│
 143:src/main.c    **** static void TriggerFinish(void)
 144:src/main.c    **** {
 145:src/main.c    ****     flashTimer = FLASH_DURATION;
 146:src/main.c    ****     chimeTimer = 0.0f;
 147:src/main.c    ****     chimeStep = 0;
 148:src/main.c    ****     if (finishSynth) {
 149:src/main.c    ****         pd->sound->synth->playNote(finishSynth, chimeNotes[0], 1.0f, 0.12f, 0);
 150:src/main.c    ****         chimeStep = 1;
 151:src/main.c    ****     }
 152:src/main.c    **** }
 153:src/main.c    **** 
 154:src/main.c    **** // ÕłØÕ¦ŗÕī¢Ķ«ĪµŚČÕÖ©
 155:src/main.c    **** static void Timer_Init(Timer* t, float seconds)
 156:src/main.c    **** {
 157:src/main.c    ****     // TODO:
 158:src/main.c    ****     // 1. Ķ«ŠńĮ« totalSeconds
 159:src/main.c    ****     // 2. Ķ«ŠńĮ« secondsLeft
 160:src/main.c    ****     // 3. Ķ«ŠńĮ« state õĖ║ 2
 161:src/main.c    **** 	t->totalSeconds = seconds;
 162:src/main.c    **** 	t->secondsLeft = seconds;
 163:src/main.c    **** 	t->state = TIMER_READY;
 164:src/main.c    **** }
 165:src/main.c    **** 
 166:src/main.c    **** // Õ╝ĆÕ¦ŗ / µÜéÕü£ÕłćµŹó
 167:src/main.c    **** static void Timer_Toggle(Timer* t)
 168:src/main.c    **** {
 169:src/main.c    ****     // TODO:
 170:src/main.c    ****     // Õ”éµ×£ state µś» 0’╝īÕ░▒µö╣µłÉ 1
 171:src/main.c    ****     // Õ”éµ×£ state µś» 1’╝īÕ░▒µö╣µłÉ 0
 172:src/main.c    **** 	t->state = (t->state == TIMER_RUNNING) ? TIMER_PAUSED : TIMER_RUNNING;
 173:src/main.c    **** }
 174:src/main.c    **** 
 175:src/main.c    **** // ķćŹńĮ«Ķ«ĪµŚČÕÖ©
 176:src/main.c    **** static void Timer_Reset(Timer* t)
 177:src/main.c    **** {
 178:src/main.c    ****     // TODO:
 179:src/main.c    ****     // 1. secondsLeft Õø×Õł░ totalSeconds
 180:src/main.c    ****     // 2. state µö╣µłÉ 2
 181:src/main.c    **** 	t->secondsLeft = t->totalSeconds;
 182:src/main.c    **** 	t->state = TIMER_READY;
 183:src/main.c    **** }
 184:src/main.c    **** 
 185:src/main.c    **** // µø┤µ¢░Ķ«ĪµŚČÕÖ©
ARM GAS  /var/folders/ym/cl7zt4994p5_9n084fng6gl80000gn/T//ccxpWZpc.s 			page 11


 186:src/main.c    **** static void Timer_Update(Timer* t, float dt)
 187:src/main.c    **** {
 188:src/main.c    ****     // TODO:
 189:src/main.c    ****     // Õ”éµ×£µŁŻÕ£©Ķ┐ÉĶĪī’╝Ü
 190:src/main.c    ****     //   ÕćÅÕ░æ secondsLeft
 191:src/main.c    ****     //   Õ”éµ×£ secondsLeft <= 0’╝Ü
 192:src/main.c    ****     //      secondsLeft = 0
 193:src/main.c    ****     //      state = 2
 194:src/main.c    **** 
 195:src/main.c    ****     // µ│©µäÅ’╝Ü
 196:src/main.c    ****     // Ķ┐ÖķćīÕģłÕÅ»õ╗źńö©ń«ĆÕŹĢÕüÜµ│Ģ’╝Ü
 197:src/main.c    ****     // µ»ÅõĖĆÕĖ¦ÕćÅ dt õĖŹÕż¬µ¢╣õŠ┐’╝īÕøĀõĖ║ secondsLeft µś» intŃĆé
 198:src/main.c    ****     // õĮĀÕÅ»õ╗źÕģłµŖŖĶ┐ÖõĖ¬ÕćĮµĢ░ńĢÖń®║’╝īõĖŗõĖĆµŁźµłæõ╗¼ÕåŹÕżäńÉåŃĆé
 199:src/main.c    **** 
 200:src/main.c    **** 	if (t->state == TIMER_RUNNING) {
 201:src/main.c    **** 		t->secondsLeft -= dt;
 202:src/main.c    **** 		if (t->secondsLeft <= 0) {
 203:src/main.c    **** 			t->secondsLeft = 0;
 204:src/main.c    **** 			t->state = TIMER_FINISHED;	
 205:src/main.c    **** 		}
 206:src/main.c    **** 	}
 207:src/main.c    ****     
 208:src/main.c    ****     if (t->state == TIMER_READY) {
 209:src/main.c    ****         t->secondsLeft = t->totalSeconds;
 210:src/main.c    ****     }
 211:src/main.c    **** 
 212:src/main.c    **** 
 213:src/main.c    **** }
 214:src/main.c    **** 
 215:src/main.c    **** // µŖŖń¦ÆµĢ░ĶĮ¼µłÉ "MM:SS" ÕŁŚń¼”õĖ▓
 216:src/main.c    **** static void FormatTime(float seconds, char* buffer, int bufferSize)
 217:src/main.c    **** {
 218:src/main.c    ****     // TODO:
 219:src/main.c    ****     // 1. minutes = seconds / 60
 220:src/main.c    ****     // 2. secs = seconds % 60
 221:src/main.c    ****     // 3. ńö© snprintf ÕåÖÕģź buffer
 222:src/main.c    ****     //
 223:src/main.c    ****     // ńø«µĀćµĀ╝Õ╝Å’╝Ü
 224:src/main.c    ****     // 25:00
 225:src/main.c    ****     // 04:09
 226:src/main.c    ****     int displaySeconds = (int)ceilf(seconds);
 227:src/main.c    ****     int minutes = displaySeconds / 60;
 228:src/main.c    ****     int secs = displaySeconds % 60;
 229:src/main.c    ****     snprintf(buffer, bufferSize, "%02d:%02d", minutes, secs);
 230:src/main.c    **** }
 231:src/main.c    **** 
 232:src/main.c    **** // ÕżäńÉåĶŠōÕģź
 233:src/main.c    **** static void HandleInput(void)
 234:src/main.c    **** {
 235:src/main.c    ****     PDButtons current;
 236:src/main.c    ****     PDButtons pushed;
 237:src/main.c    ****     PDButtons released;
 238:src/main.c    **** 
 239:src/main.c    ****     pd->system->getButtonState(&current, &pushed, &released);
 240:src/main.c    ****     if (timer.state == TIMER_READY) {
 241:src/main.c    ****         // õĖŖ/õĖŗµ¢╣ÕÉæķö«Õ£©ķóäĶ«ŠµŚČķĢ┐õ╣ŗķŚ┤ÕłćµŹó’╝łµŚĀńÄ»ń╗Ģ’╝ē
 242:src/main.c    ****         if (pushed & (kButtonUp | kButtonDown)) {
ARM GAS  /var/folders/ym/cl7zt4994p5_9n084fng6gl80000gn/T//ccxpWZpc.s 			page 12


 243:src/main.c    ****             // µēŠÕł░ÕĮōÕēŹ time Õ»╣Õ║öµł¢µ£ĆµÄźĶ┐æńÜäķóäĶ«ŠõĖŗµĀć
 244:src/main.c    ****             int idx = 0;
 245:src/main.c    ****             for (int i = 0; i < PRESET_COUNT; i++) {
 246:src/main.c    ****                 if (timePresets[i] <= time) idx = i;
 247:src/main.c    ****             }
 248:src/main.c    ****             if (pushed & kButtonUp) {
 249:src/main.c    ****                 if (idx < PRESET_COUNT - 1) idx++;
 250:src/main.c    ****             } else {
 251:src/main.c    ****                 if (idx > 0) idx--;
 252:src/main.c    ****             }
 253:src/main.c    ****             time = timePresets[idx];
 254:src/main.c    ****             Timer_Init(&timer, time * 60);
 255:src/main.c    ****             crankOffset = 0.0f;
 256:src/main.c    ****             SaveSettings();
 257:src/main.c    ****         }
 258:src/main.c    **** 
 259:src/main.c    ****         crankOffset += pd->system->getCrankChange();
 260:src/main.c    ****         if (fabsf(crankOffset) > 30.0f) {
 261:src/main.c    ****             if (crankOffset > 0) {
 262:src/main.c    ****                 time++;
 263:src/main.c    ****             } else {
 264:src/main.c    ****                 time--;
 265:src/main.c    ****             }
 266:src/main.c    **** 
 267:src/main.c    ****             if (time < 1) {
 268:src/main.c    ****                 time = 1;
 269:src/main.c    ****             }
 270:src/main.c    ****             if (time > 99) {
 271:src/main.c    ****                 time = 99;
 272:src/main.c    ****             }
 273:src/main.c    **** 
 274:src/main.c    ****             Timer_Init(&timer, time * 60);
 275:src/main.c    **** 
 276:src/main.c    ****             crankOffset -= 30.0f * (crankOffset > 0 ? 1 : -1);
 277:src/main.c    ****             SaveSettings();
 278:src/main.c    ****         }
 279:src/main.c    ****     } else if (timer.state == TIMER_FINISHED) {
 280:src/main.c    ****         // ń╗ōµØ¤ÕÉÄĶĮ¼ÕŖ©µø▓µ¤äÕöżķåÆ’╝īÕø×Õł░ READY ńŖČµĆü’╝łõ┐ØńĢÖõĖŖµ¼ĪńÜäµŚČķĢ┐’╝ē
 281:src/main.c    ****         if (pd->system->getCrankChange() != 0.0f) {
 282:src/main.c    ****             timer.state = TIMER_READY;
 283:src/main.c    ****             crankOffset = 0.0f;
 284:src/main.c    ****         }
 285:src/main.c    ****     }
 286:src/main.c    ****     
 287:src/main.c    **** 
 288:src/main.c    ****     // TODO:
 289:src/main.c    ****     // Õ”éµ×£ÕłÜµīēõĖŗ A’╝īĶ░āńö© Timer_Toggle(&timer)
 290:src/main.c    ****     // Õ”éµ×£ÕłÜµīēõĖŗ B’╝īĶ░āńö© Timer_Reset(&timer)
 291:src/main.c    ****     // A’╝Üń╗ōµØ¤µŚČÕø×Õł░ READY’╝øÕÉ”ÕłÖÕ╝ĆÕ¦ŗ/µÜéÕü£ÕłćµŹó
 292:src/main.c    ****     if (pushed & kButtonA) {
 293:src/main.c    ****         if (timer.state == TIMER_FINISHED) {
 294:src/main.c    ****             timer.state = TIMER_READY;
 295:src/main.c    ****             crankOffset = 0.0f;
 296:src/main.c    ****         } else {
 297:src/main.c    ****             Timer_Toggle(&timer);
 298:src/main.c    ****         }
 299:src/main.c    ****     }
ARM GAS  /var/folders/ym/cl7zt4994p5_9n084fng6gl80000gn/T//ccxpWZpc.s 			page 13


 300:src/main.c    **** 
 301:src/main.c    ****     // B’╝Üõ╗ģÕ£©µÜéÕü£µł¢ń╗ōµØ¤µŚČµēŹķćŹńĮ«
 302:src/main.c    ****     if (pushed & kButtonB) {
 303:src/main.c    ****         if (timer.state == TIMER_PAUSED || timer.state == TIMER_FINISHED) {
 304:src/main.c    ****             Timer_Reset(&timer);
 305:src/main.c    ****         }
 306:src/main.c    ****     }
 307:src/main.c    **** }
 308:src/main.c    **** 
 309:src/main.c    **** // µŖŖÕĮōÕēŹµŚČķŚ┤ÕåÖĶ┐ø digits[]’╝īµŻĆµĄŗÕÅśÕī¢µŚČĶ¦”ÕÅæń┐╗ńēī
 310:src/main.c    **** static void UpdateDigits(float dt)
 311:src/main.c    **** {
 312:src/main.c    ****     static float prevSeconds = -1.0f;
 313:src/main.c    **** 
 314:src/main.c    ****     char timeText[16];
 315:src/main.c    ****     FormatTime(timer.secondsLeft, timeText, sizeof(timeText));
 316:src/main.c    **** 
 317:src/main.c    ****     // timeText ÕĮóÕ”é "MM:SS"’╝īÕÅ¢Õć║ 4 õĖ¬µĢ░ÕŁŚ
 318:src/main.c    ****     char chars[DIGIT_COUNT] = { timeText[0], timeText[1], timeText[3], timeText[4] };
 319:src/main.c    **** 
 320:src/main.c    ****     // µĀ╣µŹ«Õē®õĮÖń¦ÆµĢ░ńÜäÕÅśÕī¢µ¢╣ÕÉæÕå│Õ«Üń┐╗ńēīµ¢╣ÕÉæ’╝Ü
 321:src/main.c    ****     // µŚČķŚ┤Õó×ÕŖĀ’╝łõĖŖĶ░ā’╝ē-> ÕÉæõĖŖń┐╗’╝ł-1’╝ē’╝øÕÉ”ÕłÖÕÉæõĖŗń┐╗’╝ł1’╝ē
 322:src/main.c    ****     int dir = (prevSeconds >= 0.0f && timer.secondsLeft > prevSeconds) ? -1 : 1;
 323:src/main.c    ****     prevSeconds = timer.secondsLeft;
 324:src/main.c    **** 
 325:src/main.c    ****     for (int i = 0; i < DIGIT_COUNT; i++) {
 326:src/main.c    ****         if (digits[i].value != chars[i]) {
 327:src/main.c    ****             digits[i].prev = digits[i].value;
 328:src/main.c    ****             digits[i].value = chars[i];
 329:src/main.c    ****             digits[i].progress = 0.0f;
 330:src/main.c    ****             digits[i].flipping = 1;
 331:src/main.c    ****             digits[i].dir = dir;
 332:src/main.c    ****         }
 333:src/main.c    ****         if (digits[i].flipping) {
 334:src/main.c    ****             digits[i].progress += dt * FLIP_SPEED;
 335:src/main.c    ****             if (digits[i].progress >= 1.0f) {
 336:src/main.c    ****                 digits[i].progress = 1.0f;
 337:src/main.c    ****                 digits[i].flipping = 0;
 338:src/main.c    ****             }
 339:src/main.c    ****         }
 340:src/main.c    ****     }
 341:src/main.c    **** }
 342:src/main.c    **** 
 343:src/main.c    **** // ńö╗õĖĆõĖ¬ÕŹĪńēćÕØŚ’╝ÜÕģłńö╗ÕŹĪńēćĶŠ╣µĪå’╝īÕåŹńö╗µĢ░ÕŁŚ’╝īõĖżĶĆģÕģ▒ńö©ÕÉīµĀĘńÜäń╝®µöŠ
 344:src/main.c    **** // drawY/scaleY µÄ¦ÕłČµŖśÕÅĀ’╝īclipY/clipH ķÖÉÕ«ÜÕÅ»Ķ¦üÕī║Õ¤¤
 345:src/main.c    **** static void DrawCard(int num, int x, float drawY, float s, float scaleY,
 346:src/main.c    ****                      int clipX, int clipY, int clipW, int clipH)
 347:src/main.c    **** {
 371              		.loc 1 347 1 is_stmt 1 view -0
 372              		.cfi_startproc
 373              		@ args = 8, pretend = 0, frame = 16
 374              		@ frame_needed = 0, uses_anonymous_args = 0
 348:src/main.c    ****     pd->graphics->setClipRect(clipX, clipY, clipW, clipH);
 375              		.loc 1 348 5 view .LVU62
 376              	@ src/main.c:347: {
 347:src/main.c    ****     pd->graphics->setClipRect(clipX, clipY, clipW, clipH);
 377              		.loc 1 347 1 is_stmt 0 view .LVU63
ARM GAS  /var/folders/ym/cl7zt4994p5_9n084fng6gl80000gn/T//ccxpWZpc.s 			page 14


 378 0000 F0B5     		push	{r4, r5, r6, r7, lr}	@
 379              	.LCFI7:
 380              		.cfi_def_cfa_offset 20
 381              		.cfi_offset 4, -20
 382              		.cfi_offset 5, -16
 383              		.cfi_offset 6, -12
 384              		.cfi_offset 7, -8
 385              		.cfi_offset 14, -4
 386              	@ src/main.c:348:     pd->graphics->setClipRect(clipX, clipY, clipW, clipH);
 387              		.loc 1 348 7 view .LVU64
 388 0002 1C4E     		ldr	r6, .L20	@ tmp131,
 389              	@ src/main.c:347: {
 347:src/main.c    ****     pd->graphics->setClipRect(clipX, clipY, clipW, clipH);
 390              		.loc 1 347 1 view .LVU65
 391 0004 0C46     		mov	r4, r1	@ tmp148, x
 392 0006 0546     		mov	r5, r0	@ tmp147, num
 393              	@ src/main.c:348:     pd->graphics->setClipRect(clipX, clipY, clipW, clipH);
 394              		.loc 1 348 5 view .LVU66
 395 0008 1946     		mov	r1, r3	@, tmp153
 396              	.LVL13:
 397              	@ src/main.c:348:     pd->graphics->setClipRect(clipX, clipY, clipW, clipH);
 398              		.loc 1 348 7 view .LVU67
 399 000a 3768     		ldr	r7, [r6]	@ pd, pd
 400              	@ src/main.c:348:     pd->graphics->setClipRect(clipX, clipY, clipW, clipH);
 401              		.loc 1 348 5 view .LVU68
 402 000c 1046     		mov	r0, r2	@, tmp152
 403              	.LVL14:
 404              	@ src/main.c:347: {
 347:src/main.c    ****     pd->graphics->setClipRect(clipX, clipY, clipW, clipH);
 405              		.loc 1 347 1 view .LVU69
 406 000e 2DED028B 		vpush.64	{d8}	@
 407              	.LCFI8:
 408              		.cfi_def_cfa_offset 28
 409              		.cfi_offset 80, -28
 410              		.cfi_offset 81, -24
 411              	@ src/main.c:348:     pd->graphics->setClipRect(clipX, clipY, clipW, clipH);
 412              		.loc 1 348 17 view .LVU70
 413 0012 BF68     		ldr	r7, [r7, #8]	@ pd.142_1->graphics, pd.142_1->graphics
 414              	@ src/main.c:347: {
 347:src/main.c    ****     pd->graphics->setClipRect(clipX, clipY, clipW, clipH);
 415              		.loc 1 347 1 view .LVU71
 416 0014 85B0     		sub	sp, sp, #20	@,,
 417              	.LCFI9:
 418              		.cfi_def_cfa_offset 48
 419              	@ src/main.c:347: {
 347:src/main.c    ****     pd->graphics->setClipRect(clipX, clipY, clipW, clipH);
 420              		.loc 1 347 1 view .LVU72
 421 0016 B0EE408A 		vmov.f32	s16, s0	@ drawY, tmp149
 422              	@ src/main.c:348:     pd->graphics->setClipRect(clipX, clipY, clipW, clipH);
 423              		.loc 1 348 5 view .LVU73
 424 001a BF69     		ldr	r7, [r7, #24]	@ _2->setClipRect, _2->setClipRect
 425              	@ src/main.c:347: {
 347:src/main.c    ****     pd->graphics->setClipRect(clipX, clipY, clipW, clipH);
 426              		.loc 1 347 1 view .LVU74
 427 001c CDED020A 		vstr.32	s1, [sp, #8]	@ int	@ s, %sfp
 428 0020 8DED011A 		vstr.32	s2, [sp, #4]	@ int	@ scaleY, %sfp
 429              	@ src/main.c:348:     pd->graphics->setClipRect(clipX, clipY, clipW, clipH);
ARM GAS  /var/folders/ym/cl7zt4994p5_9n084fng6gl80000gn/T//ccxpWZpc.s 			page 15


 430              		.loc 1 348 5 view .LVU75
 431 0024 DDE90C23 		ldrd	r2, r3, [sp, #48]	@,,,
 432              	.LVL15:
 433              		.loc 1 348 5 view .LVU76
 434 0028 B847     		blx	r7		@ _2->setClipRect
 435              	.LVL16:
 349:src/main.c    ****     pd->graphics->drawScaledBitmap(frameBmp, x, drawY, s, scaleY);
 436              		.loc 1 349 5 is_stmt 1 view .LVU77
 437              	@ src/main.c:349:     pd->graphics->drawScaledBitmap(frameBmp, x, drawY, s, scaleY);
 438              		.loc 1 349 7 is_stmt 0 view .LVU78
 439 002a 3368     		ldr	r3, [r6]	@ pd, pd
 440              	@ src/main.c:349:     pd->graphics->drawScaledBitmap(frameBmp, x, drawY, s, scaleY);
 441              		.loc 1 349 5 view .LVU79
 442 002c FDEEC87A 		vcvt.s32.f32	s15, s16	@ _8, drawY
 443 0030 1148     		ldr	r0, .L20+4	@ tmp135,
 444              	@ src/main.c:349:     pd->graphics->drawScaledBitmap(frameBmp, x, drawY, s, scaleY);
 445              		.loc 1 349 17 view .LVU80
 446 0032 9B68     		ldr	r3, [r3, #8]	@ pd.143_4->graphics, pd.143_4->graphics
 447              	@ src/main.c:349:     pd->graphics->drawScaledBitmap(frameBmp, x, drawY, s, scaleY);
 448              		.loc 1 349 5 view .LVU81
 449 0034 2146     		mov	r1, r4	@, x
 450 0036 DDED010A 		vldr.32	s1, [sp, #4]	@ int	@ scaleY, %sfp
 451 003a 17EE902A 		vmov	r2, s15	@ int	@ _8, _8
 452 003e 9DED020A 		vldr.32	s0, [sp, #8]	@ int	@ s, %sfp
 453 0042 5B6D     		ldr	r3, [r3, #84]	@ _5->drawScaledBitmap, _5->drawScaledBitmap
 454 0044 0068     		ldr	r0, [r0]	@, frameBmp
 455 0046 CDED030A 		vstr.32	s1, [sp, #12]	@ int	@ scaleY, %sfp
 456 004a CDED017A 		vstr.32	s15, [sp, #4]	@ int	@ _8, %sfp
 457 004e 9847     		blx	r3		@ _5->drawScaledBitmap
 458              	.LVL17:
 350:src/main.c    ****     pd->graphics->drawScaledBitmap(numBmp[num], x, drawY, s, scaleY);
 459              		.loc 1 350 5 is_stmt 1 view .LVU82
 460              	@ src/main.c:350:     pd->graphics->drawScaledBitmap(numBmp[num], x, drawY, s, scaleY);
 461              		.loc 1 350 7 is_stmt 0 view .LVU83
 462 0050 3368     		ldr	r3, [r6]	@ pd, pd
 463              	@ src/main.c:350:     pd->graphics->drawScaledBitmap(numBmp[num], x, drawY, s, scaleY);
 464              		.loc 1 350 5 view .LVU84
 465 0052 2146     		mov	r1, r4	@, x
 466 0054 0948     		ldr	r0, .L20+8	@ tmp141,
 467              	@ src/main.c:350:     pd->graphics->drawScaledBitmap(numBmp[num], x, drawY, s, scaleY);
 468              		.loc 1 350 17 view .LVU85
 469 0056 9B68     		ldr	r3, [r3, #8]	@ pd.145_9->graphics, pd.145_9->graphics
 470              	@ src/main.c:350:     pd->graphics->drawScaledBitmap(numBmp[num], x, drawY, s, scaleY);
 471              		.loc 1 350 5 view .LVU86
 472 0058 019A     		ldr	r2, [sp, #4]	@ _8, %sfp
 473 005a 50F82500 		ldr	r0, [r0, r5, lsl #2]	@, numBmp
 474 005e DDED030A 		vldr.32	s1, [sp, #12]	@ int	@ scaleY, %sfp
 475 0062 5B6D     		ldr	r3, [r3, #84]	@ _10->drawScaledBitmap, _10->drawScaledBitmap
 476 0064 9DED020A 		vldr.32	s0, [sp, #8]	@ int	@ s, %sfp
 477              	@ src/main.c:351: }
 351:src/main.c    **** }
 478              		.loc 1 351 1 view .LVU87
 479 0068 05B0     		add	sp, sp, #20	@,,
 480              	.LCFI10:
 481              		.cfi_def_cfa_offset 28
 482              		@ sp needed	@
 483 006a BDEC028B 		vldm	sp!, {d8}	@
ARM GAS  /var/folders/ym/cl7zt4994p5_9n084fng6gl80000gn/T//ccxpWZpc.s 			page 16


 484              	.LCFI11:
 485              		.cfi_restore 80
 486              		.cfi_restore 81
 487              		.cfi_def_cfa_offset 20
 488              	.LVL18:
 489              		.loc 1 351 1 view .LVU88
 490 006e BDE8F040 		pop	{r4, r5, r6, r7, lr}	@
 491              	.LCFI12:
 492              		.cfi_restore 14
 493              		.cfi_restore 7
 494              		.cfi_restore 6
 495              		.cfi_restore 5
 496              		.cfi_restore 4
 497              		.cfi_def_cfa_offset 0
 498              	.LVL19:
 499              	@ src/main.c:350:     pd->graphics->drawScaledBitmap(numBmp[num], x, drawY, s, scaleY);
 350:src/main.c    ****     pd->graphics->drawScaledBitmap(numBmp[num], x, drawY, s, scaleY);
 500              		.loc 1 350 5 view .LVU89
 501 0072 1847     		bx	r3	@ indirect register sibling call	@ _10->drawScaledBitmap
 502              	.LVL20:
 503              	.L21:
 350:src/main.c    ****     pd->graphics->drawScaledBitmap(numBmp[num], x, drawY, s, scaleY);
 504              		.loc 1 350 5 view .LVU90
 505              		.align	2
 506              	.L20:
 507 0074 00000000 		.word	.LANCHOR0
 508 0078 00000000 		.word	.LANCHOR6
 509 007c 00000000 		.word	.LANCHOR7
 510              		.cfi_endproc
 511              	.LFE27:
 512              		.size	DrawCard, .-DrawCard
 513              		.section	.text.DrawDigit,"ax",%progbits
 514              		.align	1
 515              		.p2align 4,,15
 516              		.syntax unified
 517              		.thumb
 518              		.thumb_func
 519              		.fpu fpv5-sp-d16
 520              		.type	DrawDigit, %function
 521              	DrawDigit:
 522              	.LVL21:
 523              	.LFB28:
 352:src/main.c    **** 
 353:src/main.c    **** // ńö╗õĖĆõĖ¬µĢ░ÕŁŚÕŹĪńēć’╝īõĖżµ«ĄÕ╝Åń┐╗ńēīÕŖ©ńö╗’╝łĶŠ╣µĪå + µĢ░ÕŁŚõĖĆĶĄĘµŖśÕÅĀ’╝ē
 354:src/main.c    **** // dir = 1 ÕÉæõĖŗń┐╗’╝łÕĆÆµĢ░’╝ē’╝ødir = -1 ÕÉæõĖŖń┐╗’╝łÕó×ÕŖĀµŚČķŚ┤’╝ē
 355:src/main.c    **** static void DrawDigit(int x, int y, char value, char prev, float progress, int dir)
 356:src/main.c    **** {
 524              		.loc 1 356 1 is_stmt 1 view -0
 525              		.cfi_startproc
 526              		@ args = 4, pretend = 0, frame = 8
 527              		@ frame_needed = 0, uses_anonymous_args = 0
 357:src/main.c    ****     int d = value - '0';
 528              		.loc 1 357 5 view .LVU92
 529              	@ src/main.c:356: {
 356:src/main.c    ****     int d = value - '0';
 530              		.loc 1 356 1 is_stmt 0 view .LVU93
 531 0000 2DE9F04F 		push	{r4, r5, r6, r7, r8, r9, r10, fp, lr}	@
ARM GAS  /var/folders/ym/cl7zt4994p5_9n084fng6gl80000gn/T//ccxpWZpc.s 			page 17


 532              	.LCFI13:
 533              		.cfi_def_cfa_offset 36
 534              		.cfi_offset 4, -36
 535              		.cfi_offset 5, -32
 536              		.cfi_offset 6, -28
 537              		.cfi_offset 7, -24
 538              		.cfi_offset 8, -20
 539              		.cfi_offset 9, -16
 540              		.cfi_offset 10, -12
 541              		.cfi_offset 11, -8
 542              		.cfi_offset 14, -4
 543              	@ src/main.c:357:     int d = value - '0';
 544              		.loc 1 357 9 view .LVU94
 545 0004 A2F13008 		sub	r8, r2, #48	@ d, tmp231,
 546              	.LVL22:
 358:src/main.c    ****     int p = prev - '0';
 547              		.loc 1 358 5 is_stmt 1 view .LVU95
 359:src/main.c    ****     if (d < 0 || d > 9) return;
 548              		.loc 1 359 5 view .LVU96
 549              	@ src/main.c:356: {
 356:src/main.c    ****     int d = value - '0';
 550              		.loc 1 356 1 is_stmt 0 view .LVU97
 551 0008 2DED048B 		vpush.64	{d8, d9}	@
 552              	.LCFI14:
 553              		.cfi_def_cfa_offset 52
 554              		.cfi_offset 80, -52
 555              		.cfi_offset 81, -48
 556              		.cfi_offset 82, -44
 557              		.cfi_offset 83, -40
 558              	@ src/main.c:359:     if (d < 0 || d > 9) return;
 559              		.loc 1 359 8 view .LVU98
 560 000c B8F1090F 		cmp	r8, #9	@ d,
 561              	@ src/main.c:356: {
 356:src/main.c    ****     int d = value - '0';
 562              		.loc 1 356 1 view .LVU99
 563 0010 85B0     		sub	sp, sp, #20	@,,
 564              	.LCFI15:
 565              		.cfi_def_cfa_offset 72
 566              	@ src/main.c:356: {
 356:src/main.c    ****     int d = value - '0';
 567              		.loc 1 356 1 view .LVU100
 568 0012 DDF848A0 		ldr	r10, [sp, #72]	@ dir, dir
 569              	@ src/main.c:359:     if (d < 0 || d > 9) return;
 570              		.loc 1 359 8 view .LVU101
 571 0016 00F2BC80 		bhi	.L22		@,
 572              	@ src/main.c:363:     int cw = (int)(cardW * s);
 360:src/main.c    ****     if (p < 0 || p > 9) p = d;
 361:src/main.c    **** 
 362:src/main.c    ****     float s = digitScale;
 363:src/main.c    ****     int cw = (int)(cardW * s);
 573              		.loc 1 363 26 view .LVU102
 574 001a 794A     		ldr	r2, .L44	@ tmp177,
 575              	.LVL23:
 576              	@ src/main.c:358:     int p = prev - '0';
 358:src/main.c    ****     if (d < 0 || d > 9) return;
 577              		.loc 1 358 9 view .LVU103
 578 001c A3F13004 		sub	r4, r3, #48	@ p, prev,
ARM GAS  /var/folders/ym/cl7zt4994p5_9n084fng6gl80000gn/T//ccxpWZpc.s 			page 18


 360:src/main.c    ****     if (p < 0 || p > 9) p = d;
 579              		.loc 1 360 5 is_stmt 1 view .LVU104
 580              	@ src/main.c:364:     int topH = (int)(halfH * s);
 364:src/main.c    ****     int topH = (int)(halfH * s);
 581              		.loc 1 364 28 is_stmt 0 view .LVU105
 582 0020 784B     		ldr	r3, .L44+4	@ tmp181,
 583              	.LVL24:
 584              		.loc 1 364 28 view .LVU106
 585 0022 F0EE408A 		vmov.f32	s17, s0	@ progress, tmp233
 586              	@ src/main.c:363:     int cw = (int)(cardW * s);
 363:src/main.c    ****     int topH = (int)(halfH * s);
 587              		.loc 1 363 26 view .LVU107
 588 0026 D2ED007A 		vldr.32	s15, [r2]	@ int	@ cardW, cardW
 589              	@ src/main.c:360:     if (p < 0 || p > 9) p = d;
 360:src/main.c    **** 
 590              		.loc 1 360 8 view .LVU108
 591 002a 092C     		cmp	r4, #9	@ p,
 592 002c 88BF     		it	hi		@
 593 002e 4446     		movhi	r4, r8	@, p, d
 594              	.LVL25:
 362:src/main.c    ****     int cw = (int)(cardW * s);
 595              		.loc 1 362 5 is_stmt 1 view .LVU109
 596              	@ src/main.c:362:     float s = digitScale;
 362:src/main.c    ****     int cw = (int)(cardW * s);
 597              		.loc 1 362 11 is_stmt 0 view .LVU110
 598 0030 754A     		ldr	r2, .L44+8	@ tmp176,
 599 0032 0646     		mov	r6, r0	@ x, tmp229
 600              	@ src/main.c:363:     int cw = (int)(cardW * s);
 363:src/main.c    ****     int topH = (int)(halfH * s);
 601              		.loc 1 363 26 view .LVU111
 602 0034 F8EEE77A 		vcvt.f32.s32	s15, s15	@ tmp178, cardW
 603              	@ src/main.c:364:     int topH = (int)(halfH * s);
 604              		.loc 1 364 28 view .LVU112
 605 0038 93ED008A 		vldr.32	s16, [r3]	@ int	@ halfH, halfH
 606              	@ src/main.c:362:     float s = digitScale;
 362:src/main.c    ****     int cw = (int)(cardW * s);
 607              		.loc 1 362 11 view .LVU113
 608 003c 92ED009A 		vldr.32	s18, [r2]	@ s, digitScale
 609              	.LVL26:
 363:src/main.c    ****     int topH = (int)(halfH * s);
 610              		.loc 1 363 5 is_stmt 1 view .LVU114
 611 0040 8946     		mov	r9, r1	@ y, tmp230
 612              	@ src/main.c:368:     if (barStyle != BAR_FLOOD && barStyle != BAR_SNOW) {
 365:src/main.c    **** 
 366:src/main.c    ****     // ķĆÅµśÄÕāÅń┤ĀµśŠńż║õĖ║ńÖĮĶē▓’╝ÜÕģłķō║ńÖĮÕ║Ģ
 367:src/main.c    ****     // Flood / Snow µĀĘÕ╝ÅõĖŗĶĘ│Ķ┐ćńÖĮÕ║Ģ’╝īĶ«®ĶŠ╣µĪåńÜäķĆÅµśÄÕ£åĶ¦Æķ£▓Õć║ĶāīÕÉÄńÜäĶāīµÖ»
 368:src/main.c    ****     if (barStyle != BAR_FLOOD && barStyle != BAR_SNOW) {
 613              		.loc 1 368 31 is_stmt 0 view .LVU115
 614 0042 724B     		ldr	r3, .L44+12	@ tmp185,
 615              	@ src/main.c:364:     int topH = (int)(halfH * s);
 364:src/main.c    **** 
 616              		.loc 1 364 28 view .LVU116
 617 0044 B8EEC88A 		vcvt.f32.s32	s16, s16	@ tmp182, halfH
 618              	@ src/main.c:363:     int cw = (int)(cardW * s);
 363:src/main.c    ****     int topH = (int)(halfH * s);
 619              		.loc 1 363 26 view .LVU117
 620 0048 67EE897A 		vmul.f32	s15, s15, s18	@ tmp180, tmp178, s
ARM GAS  /var/folders/ym/cl7zt4994p5_9n084fng6gl80000gn/T//ccxpWZpc.s 			page 19


 621              	@ src/main.c:369:         pd->graphics->fillRect(x, y, cw, topH * 2, kColorWhite);
 369:src/main.c    ****         pd->graphics->fillRect(x, y, cw, topH * 2, kColorWhite);
 622              		.loc 1 369 11 view .LVU118
 623 004c DFF8C0B1 		ldr	fp, .L44+16	@ tmp228,
 624              	@ src/main.c:368:     if (barStyle != BAR_FLOOD && barStyle != BAR_SNOW) {
 368:src/main.c    ****         pd->graphics->fillRect(x, y, cw, topH * 2, kColorWhite);
 625              		.loc 1 368 31 view .LVU119
 626 0050 1B68     		ldr	r3, [r3]	@ barStyle, barStyle
 627              	@ src/main.c:364:     int topH = (int)(halfH * s);
 364:src/main.c    **** 
 628              		.loc 1 364 28 view .LVU120
 629 0052 28EE098A 		vmul.f32	s16, s16, s18	@ tmp184, tmp182, s
 630              	@ src/main.c:368:     if (barStyle != BAR_FLOOD && barStyle != BAR_SNOW) {
 368:src/main.c    ****         pd->graphics->fillRect(x, y, cw, topH * 2, kColorWhite);
 631              		.loc 1 368 31 view .LVU121
 632 0056 23F00203 		bic	r3, r3, #2	@ tmp186, barStyle,
 633              	@ src/main.c:363:     int cw = (int)(cardW * s);
 363:src/main.c    ****     int topH = (int)(halfH * s);
 634              		.loc 1 363 9 view .LVU122
 635 005a FDEEE77A 		vcvt.s32.f32	s15, s15	@ cw, tmp180
 636              	@ src/main.c:368:     if (barStyle != BAR_FLOOD && barStyle != BAR_SNOW) {
 368:src/main.c    ****         pd->graphics->fillRect(x, y, cw, topH * 2, kColorWhite);
 637              		.loc 1 368 8 view .LVU123
 638 005e 012B     		cmp	r3, #1	@ tmp186,
 639              	@ src/main.c:364:     int topH = (int)(halfH * s);
 364:src/main.c    **** 
 640              		.loc 1 364 9 view .LVU124
 641 0060 BDEEC88A 		vcvt.s32.f32	s16, s16	@ topH, tmp184
 642              	@ src/main.c:363:     int cw = (int)(cardW * s);
 363:src/main.c    ****     int topH = (int)(halfH * s);
 643              		.loc 1 363 9 view .LVU125
 644 0064 17EE905A 		vmov	r5, s15	@ int	@ cw, cw
 645              	.LVL27:
 364:src/main.c    **** 
 646              		.loc 1 364 5 is_stmt 1 view .LVU126
 368:src/main.c    ****         pd->graphics->fillRect(x, y, cw, topH * 2, kColorWhite);
 647              		.loc 1 368 5 view .LVU127
 648              	@ src/main.c:368:     if (barStyle != BAR_FLOOD && barStyle != BAR_SNOW) {
 368:src/main.c    ****         pd->graphics->fillRect(x, y, cw, topH * 2, kColorWhite);
 649              		.loc 1 368 8 is_stmt 0 view .LVU128
 650 0068 0ED0     		beq	.L25		@,
 651              		.loc 1 369 9 is_stmt 1 view .LVU129
 652              	@ src/main.c:369:         pd->graphics->fillRect(x, y, cw, topH * 2, kColorWhite);
 653              		.loc 1 369 11 is_stmt 0 view .LVU130
 654 006a DBF80070 		ldr	r7, [fp]	@ pd, pd
 655              	@ src/main.c:369:         pd->graphics->fillRect(x, y, cw, topH * 2, kColorWhite);
 656              		.loc 1 369 9 view .LVU131
 657 006e 4FF0010C 		mov	ip, #1	@ tmp192,
 658 0072 18EE103A 		vmov	r3, s16	@ int	@ topH, topH
 659 0076 17EE902A 		vmov	r2, s15	@ int	@, cw
 660              	@ src/main.c:369:         pd->graphics->fillRect(x, y, cw, topH * 2, kColorWhite);
 661              		.loc 1 369 21 view .LVU132
 662 007a BF68     		ldr	r7, [r7, #8]	@ pd.140_14->graphics, pd.140_14->graphics
 663              	@ src/main.c:369:         pd->graphics->fillRect(x, y, cw, topH * 2, kColorWhite);
 664              		.loc 1 369 9 view .LVU133
 665 007c CDF800C0 		str	ip, [sp]	@ tmp192,
 666 0080 03FA0CF3 		lsl	r3, r3, ip	@, topH,
ARM GAS  /var/folders/ym/cl7zt4994p5_9n084fng6gl80000gn/T//ccxpWZpc.s 			page 20


 667 0084 BF6C     		ldr	r7, [r7, #72]	@ _15->fillRect, _15->fillRect
 668 0086 B847     		blx	r7		@ _15->fillRect
 669              	.LVL28:
 670              	.L25:
 370:src/main.c    ****     }
 371:src/main.c    **** 
 372:src/main.c    ****     if (dir < 0) {
 671              		.loc 1 372 5 is_stmt 1 view .LVU134
 672              	@ src/main.c:374:         DrawCard(p, x, y, s, s, x, y, cw, topH);
 373:src/main.c    ****         // ÕÉæõĖŖń┐╗’╝ÜÕ║ĢÕ▒éµś»µŚ¦ńÜäõĖŖÕŹŖ + µ¢░ńÜäõĖŗÕŹŖ
 374:src/main.c    ****         DrawCard(p, x, y, s, s, x, y, cw, topH);
 673              		.loc 1 374 9 is_stmt 0 view .LVU135
 674 0088 07EE909A 		vmov	s15, r9	@ int	@ y, y
 675              	@ src/main.c:375:         DrawCard(d, x, y, s, s, x, y + topH, cw, topH);
 375:src/main.c    ****         DrawCard(d, x, y, s, s, x, y + topH, cw, topH);
 676              		.loc 1 375 9 view .LVU136
 677 008c 18EE103A 		vmov	r3, s16	@ int	@ topH, topH
 678              	@ src/main.c:372:     if (dir < 0) {
 372:src/main.c    ****         // ÕÉæõĖŖń┐╗’╝ÜÕ║ĢÕ▒éµś»µŚ¦ńÜäõĖŖÕŹŖ + µ¢░ńÜäõĖŗÕŹŖ
 679              		.loc 1 372 8 view .LVU137
 680 0090 BAF1000F 		cmp	r10, #0	@ dir,
 681              	@ src/main.c:374:         DrawCard(p, x, y, s, s, x, y, cw, topH);
 374:src/main.c    ****         DrawCard(d, x, y, s, s, x, y + topH, cw, topH);
 682              		.loc 1 374 9 view .LVU138
 683 0094 B0EE491A 		vmov.f32	s2, s18	@, s
 684 0098 B8EEE70A 		vcvt.f32.s32	s0, s15	@ _18, y
 685              	@ src/main.c:375:         DrawCard(d, x, y, s, s, x, y + topH, cw, topH);
 686              		.loc 1 375 9 view .LVU139
 687 009c 03EB0907 		add	r7, r3, r9	@ _19, topH, y
 688              	@ src/main.c:374:         DrawCard(p, x, y, s, s, x, y, cw, topH);
 374:src/main.c    ****         DrawCard(d, x, y, s, s, x, y + topH, cw, topH);
 689              		.loc 1 374 9 view .LVU140
 690 00a0 F0EE490A 		vmov.f32	s1, s18	@, s
 691 00a4 4B46     		mov	r3, r9	@, y
 692 00a6 3246     		mov	r2, r6	@, x
 693 00a8 3146     		mov	r1, r6	@, x
 694 00aa 8DED018A 		vstr.32	s16, [sp, #4]	@ int	@ topH,
 695 00ae 0095     		str	r5, [sp]	@ cw,
 696 00b0 8DED030A 		vstr.32	s0, [sp, #12]	@ int	@ _18, %sfp
 697              	@ src/main.c:372:     if (dir < 0) {
 372:src/main.c    ****         // ÕÉæõĖŖń┐╗’╝ÜÕ║ĢÕ▒éµś»µŚ¦ńÜäõĖŖÕŹŖ + µ¢░ńÜäõĖŗÕŹŖ
 698              		.loc 1 372 8 view .LVU141
 699 00b4 40DB     		blt	.L42		@,
 700              	.LVL29:
 376:src/main.c    **** 
 377:src/main.c    ****         if (progress < 0.5f) {
 378:src/main.c    ****             // ń¼¼õĖĆķśČµ«Ą’╝ÜµŚ¦ńÜäõĖŗÕŹŖõ╗ÄõĖŁń║┐ÕŠĆõĖŖµŖś
 379:src/main.c    ****             float fold = 1.0f - progress / 0.5f;   // 1..0
 380:src/main.c    ****             int h = (int)(topH * fold);
 381:src/main.c    ****             int drawY = y + topH - h;
 382:src/main.c    ****             DrawCard(p, x, drawY, s, s * fold, x, y + topH, cw, h);
 383:src/main.c    ****         } else {
 384:src/main.c    ****             // ń¼¼õ║īķśČµ«Ą’╝Üµ¢░ńÜäõĖŖÕŹŖõ╗ÄõĖŁń║┐ÕŠĆõĖŖÕ▒ĢÕ╝Ć
 385:src/main.c    ****             float grow = (progress - 0.5f) / 0.5f;  // 0..1
 386:src/main.c    ****             int h = (int)(topH * grow);
 387:src/main.c    ****             int drawY = y + topH - h;
 388:src/main.c    ****             DrawCard(d, x, drawY, s, s * grow, x, y + topH - h, cw, h);
ARM GAS  /var/folders/ym/cl7zt4994p5_9n084fng6gl80000gn/T//ccxpWZpc.s 			page 21


 389:src/main.c    ****         }
 390:src/main.c    ****     } else {
 391:src/main.c    ****         // ÕÉæõĖŗń┐╗’╝ÜÕ║ĢÕ▒éµś»µ¢░ńÜäõĖŖÕŹŖ + µŚ¦ńÜäõĖŗÕŹŖ
 392:src/main.c    ****         DrawCard(d, x, y, s, s, x, y, cw, topH);
 701              		.loc 1 392 9 is_stmt 1 view .LVU142
 702 00b6 4046     		mov	r0, r8	@, d
 703 00b8 FFF7FEFF 		bl	DrawCard		@
 704              	.LVL30:
 393:src/main.c    ****         DrawCard(p, x, y, s, s, x, y + topH, cw, topH);
 705              		.loc 1 393 9 view .LVU143
 706 00bc B0EE491A 		vmov.f32	s2, s18	@, s
 707 00c0 F0EE490A 		vmov.f32	s1, s18	@, s
 708 00c4 3B46     		mov	r3, r7	@, _31
 709 00c6 9DED030A 		vldr.32	s0, [sp, #12]	@ int	@ _30, %sfp
 710 00ca 3246     		mov	r2, r6	@, x
 711 00cc 3146     		mov	r1, r6	@, x
 712 00ce 2046     		mov	r0, r4	@, p
 713 00d0 8DED018A 		vstr.32	s16, [sp, #4]	@ int	@ topH,
 714 00d4 0095     		str	r5, [sp]	@ cw,
 715 00d6 FFF7FEFF 		bl	DrawCard		@
 716              	.LVL31:
 394:src/main.c    **** 
 395:src/main.c    ****         if (progress < 0.5f) {
 717              		.loc 1 395 9 view .LVU144
 718              	@ src/main.c:395:         if (progress < 0.5f) {
 719              		.loc 1 395 12 is_stmt 0 view .LVU145
 720 00da B6EE001A 		vmov.f32	s2, #5.0e-1	@ tmp209,
 721 00de F4EEC18A 		vcmpe.f32	s17, s2	@ progress, tmp209
 722 00e2 F1EE10FA 		vmrs	APSR_nzcv, FPSCR
 723 00e6 59D4     		bmi	.L43		@,
 724              	.LBB70:
 396:src/main.c    ****             // ń¼¼õĖĆķśČµ«Ą’╝ÜµŚ¦ńÜäõĖŖÕŹŖõ╗ÄõĖŁń║┐ÕŠĆõĖŗµŖś
 397:src/main.c    ****             float fold = 1.0f - progress / 0.5f;   // 1..0
 398:src/main.c    ****             int h = (int)(topH * fold);
 399:src/main.c    ****             int drawY = y + topH - h;
 400:src/main.c    ****             DrawCard(p, x, drawY, s, s * fold, x, drawY, cw, h);
 401:src/main.c    ****         } else {
 402:src/main.c    ****             // ń¼¼õ║īķśČµ«Ą’╝Üµ¢░ńÜäõĖŗÕŹŖõ╗ÄõĖŁń║┐ÕŠĆõĖŗÕ▒ĢÕ╝Ć
 403:src/main.c    ****             float grow = (progress - 0.5f) / 0.5f;  // 0..1
 725              		.loc 1 403 13 is_stmt 1 view .LVU146
 726              	@ src/main.c:403:             float grow = (progress - 0.5f) / 0.5f;  // 0..1
 727              		.loc 1 403 36 is_stmt 0 view .LVU147
 728 00e8 78EEC18A 		vsub.f32	s17, s17, s2	@ tmp217, progress, tmp209
 729              	.LVL32:
 730              	@ src/main.c:406:             DrawCard(d, x, drawY, s, s * grow, x, y + topH, cw, h);
 404:src/main.c    ****             int h = (int)(topH * grow);
 405:src/main.c    ****             int drawY = y + topH - h;
 406:src/main.c    ****             DrawCard(d, x, drawY, s, s * grow, x, y + topH, cw, h);
 731              		.loc 1 406 13 view .LVU148
 732 00ec 4046     		mov	r0, r8	@, d
 733              	@ src/main.c:404:             int h = (int)(topH * grow);
 404:src/main.c    ****             int h = (int)(topH * grow);
 734              		.loc 1 404 32 view .LVU149
 735 00ee B8EEC88A 		vcvt.f32.s32	s16, s16	@ tmp219, topH
 736              	.LVL33:
 737              	@ src/main.c:406:             DrawCard(d, x, drawY, s, s * grow, x, y + topH, cw, h);
 738              		.loc 1 406 13 view .LVU150
ARM GAS  /var/folders/ym/cl7zt4994p5_9n084fng6gl80000gn/T//ccxpWZpc.s 			page 22


 739 00f2 3B46     		mov	r3, r7	@, _31
 740 00f4 F0EE490A 		vmov.f32	s1, s18	@, s
 741 00f8 3246     		mov	r2, r6	@, x
 742              	@ src/main.c:403:             float grow = (progress - 0.5f) / 0.5f;  // 0..1
 403:src/main.c    ****             int h = (int)(topH * grow);
 743              		.loc 1 403 19 view .LVU151
 744 00fa 78EEA88A 		vadd.f32	s17, s17, s17	@ grow, tmp217, tmp217
 745              	.LVL34:
 404:src/main.c    ****             int h = (int)(topH * grow);
 746              		.loc 1 404 13 is_stmt 1 view .LVU152
 747              	@ src/main.c:406:             DrawCard(d, x, drawY, s, s * grow, x, y + topH, cw, h);
 748              		.loc 1 406 13 is_stmt 0 view .LVU153
 749 00fe 3146     		mov	r1, r6	@, tmp2
 750 0100 0095     		str	r5, [sp]	@ cw,
 751              	@ src/main.c:404:             int h = (int)(topH * grow);
 404:src/main.c    ****             int h = (int)(topH * grow);
 752              		.loc 1 404 32 view .LVU154
 753 0102 28EE288A 		vmul.f32	s16, s16, s17	@ tmp220, tmp219, grow
 754              	@ src/main.c:406:             DrawCard(d, x, drawY, s, s * grow, x, y + topH, cw, h);
 755              		.loc 1 406 13 view .LVU155
 756 0106 29EE281A 		vmul.f32	s2, s18, s17	@, s, grow
 757              	.LVL35:
 758              	.L40:
 759              	@ src/main.c:404:             int h = (int)(topH * grow);
 404:src/main.c    ****             int h = (int)(topH * grow);
 760              		.loc 1 404 17 view .LVU156
 761 010a FDEEC87A 		vcvt.s32.f32	s15, s16	@ h, tmp220
 762 010e 17EE904A 		vmov	r4, s15	@ int	@ h, h
 763              	.LVL36:
 405:src/main.c    ****             DrawCard(d, x, drawY, s, s * grow, x, y + topH, cw, h);
 764              		.loc 1 405 13 is_stmt 1 view .LVU157
 765              		.loc 1 406 13 view .LVU158
 766 0112 CDED017A 		vstr.32	s15, [sp, #4]	@ int	@ h,
 767              	@ src/main.c:405:             int drawY = y + topH - h;
 405:src/main.c    ****             DrawCard(d, x, drawY, s, s * grow, x, y + topH, cw, h);
 768              		.loc 1 405 17 is_stmt 0 view .LVU159
 769 0116 3D1B     		subs	r5, r7, r4	@ drawY, _31, h
 770              	.LVL37:
 405:src/main.c    ****             DrawCard(d, x, drawY, s, s * grow, x, y + topH, cw, h);
 771              		.loc 1 405 17 view .LVU160
 772 0118 00EE105A 		vmov	s0, r5	@ int	@ drawY, drawY
 773              	@ src/main.c:406:             DrawCard(d, x, drawY, s, s * grow, x, y + topH, cw, h);
 774              		.loc 1 406 13 view .LVU161
 775 011c B8EEC00A 		vcvt.f32.s32	s0, s0	@, drawY
 776 0120 FFF7FEFF 		bl	DrawCard		@
 777              	.LVL38:
 778              	.L29:
 779              		.loc 1 406 13 view .LVU162
 780              	.LBE70:
 407:src/main.c    ****         }
 408:src/main.c    ****     }
 409:src/main.c    **** 
 410:src/main.c    ****     pd->graphics->clearClipRect();
 781              		.loc 1 410 5 is_stmt 1 view .LVU163
 782              	@ src/main.c:410:     pd->graphics->clearClipRect();
 783              		.loc 1 410 7 is_stmt 0 view .LVU164
 784 0124 DBF80030 		ldr	r3, [fp]	@ pd, pd
ARM GAS  /var/folders/ym/cl7zt4994p5_9n084fng6gl80000gn/T//ccxpWZpc.s 			page 23


 785              	@ src/main.c:410:     pd->graphics->clearClipRect();
 786              		.loc 1 410 17 view .LVU165
 787 0128 9B68     		ldr	r3, [r3, #8]	@ pd.141_42->graphics, pd.141_42->graphics
 788              	@ src/main.c:410:     pd->graphics->clearClipRect();
 789              		.loc 1 410 5 view .LVU166
 790 012a DB69     		ldr	r3, [r3, #28]	@ _43->clearClipRect, _43->clearClipRect
 791              	@ src/main.c:411: }
 411:src/main.c    **** }
 792              		.loc 1 411 1 view .LVU167
 793 012c 05B0     		add	sp, sp, #20	@,,
 794              	.LCFI16:
 795              		.cfi_remember_state
 796              		.cfi_def_cfa_offset 52
 797              		@ sp needed	@
 798 012e BDEC048B 		vldm	sp!, {d8-d9}	@,
 799              	.LCFI17:
 800              		.cfi_restore 82
 801              		.cfi_restore 83
 802              		.cfi_restore 80
 803              		.cfi_restore 81
 804              		.cfi_def_cfa_offset 36
 805              	.LVL39:
 806              		.loc 1 411 1 view .LVU168
 807 0132 BDE8F04F 		pop	{r4, r5, r6, r7, r8, r9, r10, fp, lr}	@
 808              	.LCFI18:
 809              		.cfi_restore 14
 810              		.cfi_restore 11
 811              		.cfi_restore 10
 812              		.cfi_restore 9
 813              		.cfi_restore 8
 814              		.cfi_restore 7
 815              		.cfi_restore 6
 816              		.cfi_restore 5
 817              		.cfi_restore 4
 818              		.cfi_def_cfa_offset 0
 819              	.LVL40:
 820              	@ src/main.c:410:     pd->graphics->clearClipRect();
 410:src/main.c    **** }
 821              		.loc 1 410 5 view .LVU169
 822 0136 1847     		bx	r3	@ indirect register sibling call	@ _43->clearClipRect
 823              	.LVL41:
 824              	.L42:
 825              	.LCFI19:
 826              		.cfi_restore_state
 374:src/main.c    ****         DrawCard(d, x, y, s, s, x, y + topH, cw, topH);
 827              		.loc 1 374 9 is_stmt 1 view .LVU170
 828 0138 2046     		mov	r0, r4	@, p
 829 013a FFF7FEFF 		bl	DrawCard		@
 830              	.LVL42:
 375:src/main.c    **** 
 831              		.loc 1 375 9 view .LVU171
 832 013e B0EE491A 		vmov.f32	s2, s18	@, s
 833 0142 F0EE490A 		vmov.f32	s1, s18	@, s
 834 0146 3B46     		mov	r3, r7	@, _19
 835 0148 9DED030A 		vldr.32	s0, [sp, #12]	@ int	@ _18, %sfp
 836 014c 3246     		mov	r2, r6	@, x
 837 014e 3146     		mov	r1, r6	@, x
ARM GAS  /var/folders/ym/cl7zt4994p5_9n084fng6gl80000gn/T//ccxpWZpc.s 			page 24


 838 0150 4046     		mov	r0, r8	@, d
 839 0152 8DED018A 		vstr.32	s16, [sp, #4]	@ int	@ topH,
 840 0156 0095     		str	r5, [sp]	@ cw,
 841 0158 FFF7FEFF 		bl	DrawCard		@
 842              	.LVL43:
 377:src/main.c    ****             // ń¼¼õĖĆķśČµ«Ą’╝ÜµŚ¦ńÜäõĖŗÕŹŖõ╗ÄõĖŁń║┐ÕŠĆõĖŖµŖś
 843              		.loc 1 377 9 view .LVU172
 844              	@ src/main.c:377:         if (progress < 0.5f) {
 377:src/main.c    ****             // ń¼¼õĖĆķśČµ«Ą’╝ÜµŚ¦ńÜäõĖŗÕŹŖõ╗ÄõĖŁń║┐ÕŠĆõĖŖµŖś
 845              		.loc 1 377 12 is_stmt 0 view .LVU173
 846 015c B6EE001A 		vmov.f32	s2, #5.0e-1	@ tmp194,
 847 0160 F4EEC18A 		vcmpe.f32	s17, s2	@ progress, tmp194
 848 0164 F1EE10FA 		vmrs	APSR_nzcv, FPSCR
 849 0168 38D5     		bpl	.L37		@,
 850              	.LBB71:
 379:src/main.c    ****             int h = (int)(topH * fold);
 851              		.loc 1 379 13 is_stmt 1 view .LVU174
 852              	@ src/main.c:379:             float fold = 1.0f - progress / 0.5f;   // 1..0
 379:src/main.c    ****             int h = (int)(topH * fold);
 853              		.loc 1 379 19 is_stmt 0 view .LVU175
 854 016a F0EE007A 		vmov.f32	s15, #2.0e+0	@ tmp196,
 855              	@ src/main.c:382:             DrawCard(p, x, drawY, s, s * fold, x, y + topH, cw, h);
 382:src/main.c    ****         } else {
 856              		.loc 1 382 13 view .LVU176
 857 016e 2046     		mov	r0, r4	@, p
 858              	@ src/main.c:379:             float fold = 1.0f - progress / 0.5f;   // 1..0
 379:src/main.c    ****             int h = (int)(topH * fold);
 859              		.loc 1 379 19 view .LVU177
 860 0170 B7EE001A 		vmov.f32	s2, #1.0e+0	@ tmp197,
 861              	@ src/main.c:382:             DrawCard(p, x, drawY, s, s * fold, x, y + topH, cw, h);
 382:src/main.c    ****         } else {
 862              		.loc 1 382 13 view .LVU178
 863 0174 3B46     		mov	r3, r7	@, _19
 864              	@ src/main.c:380:             int h = (int)(topH * fold);
 380:src/main.c    ****             int drawY = y + topH - h;
 865              		.loc 1 380 32 view .LVU179
 866 0176 B8EEC88A 		vcvt.f32.s32	s16, s16	@ tmp198, topH
 867              	.LVL44:
 868              	@ src/main.c:382:             DrawCard(p, x, drawY, s, s * fold, x, y + topH, cw, h);
 382:src/main.c    ****         } else {
 869              		.loc 1 382 13 view .LVU180
 870 017a 3246     		mov	r2, r6	@, x
 871 017c F0EE490A 		vmov.f32	s1, s18	@, s
 872 0180 3146     		mov	r1, r6	@, tmp2
 873              	@ src/main.c:379:             float fold = 1.0f - progress / 0.5f;   // 1..0
 379:src/main.c    ****             int h = (int)(topH * fold);
 874              		.loc 1 379 19 view .LVU181
 875 0182 A8EEE71A 		vfms.f32	s2, s17, s15	@ fold, progress, tmp196
 876              	.LVL45:
 380:src/main.c    ****             int drawY = y + topH - h;
 877              		.loc 1 380 13 is_stmt 1 view .LVU182
 878              	@ src/main.c:382:             DrawCard(p, x, drawY, s, s * fold, x, y + topH, cw, h);
 382:src/main.c    ****         } else {
 879              		.loc 1 382 13 is_stmt 0 view .LVU183
 880 0186 0095     		str	r5, [sp]	@ cw,
 881              	@ src/main.c:380:             int h = (int)(topH * fold);
 380:src/main.c    ****             int drawY = y + topH - h;
ARM GAS  /var/folders/ym/cl7zt4994p5_9n084fng6gl80000gn/T//ccxpWZpc.s 			page 25


 882              		.loc 1 380 32 view .LVU184
 883 0188 28EE018A 		vmul.f32	s16, s16, s2	@ tmp199, tmp198, fold
 884              	@ src/main.c:382:             DrawCard(p, x, drawY, s, s * fold, x, y + topH, cw, h);
 382:src/main.c    ****         } else {
 885              		.loc 1 382 13 view .LVU185
 886 018c 29EE011A 		vmul.f32	s2, s18, s2	@, s, fold
 887              	.LVL46:
 382:src/main.c    ****         } else {
 888              		.loc 1 382 13 view .LVU186
 889 0190 BBE7     		b	.L40		@
 890              	.LVL47:
 891              	.L22:
 382:src/main.c    ****         } else {
 892              		.loc 1 382 13 view .LVU187
 893              	.LBE71:
 894              	@ src/main.c:411: }
 895              		.loc 1 411 1 view .LVU188
 896 0192 05B0     		add	sp, sp, #20	@,,
 897              	.LCFI20:
 898              		.cfi_remember_state
 899              		.cfi_def_cfa_offset 52
 900              		@ sp needed	@
 901 0194 BDEC048B 		vldm	sp!, {d8-d9}	@,
 902              	.LCFI21:
 903              		.cfi_restore 82
 904              		.cfi_restore 83
 905              		.cfi_restore 80
 906              		.cfi_restore 81
 907              		.cfi_def_cfa_offset 36
 908 0198 BDE8F08F 		pop	{r4, r5, r6, r7, r8, r9, r10, fp, pc}	@
 909              	.LVL48:
 910              	.L43:
 911              	.LCFI22:
 912              		.cfi_restore_state
 913              	.LBB72:
 397:src/main.c    ****             int h = (int)(topH * fold);
 914              		.loc 1 397 13 is_stmt 1 view .LVU189
 915              	@ src/main.c:397:             float fold = 1.0f - progress / 0.5f;   // 1..0
 397:src/main.c    ****             int h = (int)(topH * fold);
 916              		.loc 1 397 19 is_stmt 0 view .LVU190
 917 019c F0EE007A 		vmov.f32	s15, #2.0e+0	@ tmp211,
 918              	@ src/main.c:400:             DrawCard(p, x, drawY, s, s * fold, x, drawY, cw, h);
 400:src/main.c    ****         } else {
 919              		.loc 1 400 13 view .LVU191
 920 01a0 2046     		mov	r0, r4	@, p
 921              	@ src/main.c:397:             float fold = 1.0f - progress / 0.5f;   // 1..0
 397:src/main.c    ****             int h = (int)(topH * fold);
 922              		.loc 1 397 19 view .LVU192
 923 01a2 B7EE001A 		vmov.f32	s2, #1.0e+0	@ tmp212,
 924              	@ src/main.c:400:             DrawCard(p, x, drawY, s, s * fold, x, drawY, cw, h);
 400:src/main.c    ****         } else {
 925              		.loc 1 400 13 view .LVU193
 926 01a6 3246     		mov	r2, r6	@, x
 927              	@ src/main.c:398:             int h = (int)(topH * fold);
 398:src/main.c    ****             int drawY = y + topH - h;
 928              		.loc 1 398 32 view .LVU194
 929 01a8 B8EEC88A 		vcvt.f32.s32	s16, s16	@ tmp213, topH
ARM GAS  /var/folders/ym/cl7zt4994p5_9n084fng6gl80000gn/T//ccxpWZpc.s 			page 26


 930              	.LVL49:
 931              	@ src/main.c:400:             DrawCard(p, x, drawY, s, s * fold, x, drawY, cw, h);
 400:src/main.c    ****         } else {
 932              		.loc 1 400 13 view .LVU195
 933 01ac 3146     		mov	r1, r6	@, tmp2
 934 01ae F0EE490A 		vmov.f32	s1, s18	@, s
 935 01b2 0095     		str	r5, [sp]	@ cw,
 936              	@ src/main.c:397:             float fold = 1.0f - progress / 0.5f;   // 1..0
 397:src/main.c    ****             int h = (int)(topH * fold);
 937              		.loc 1 397 19 view .LVU196
 938 01b4 A8EEE71A 		vfms.f32	s2, s17, s15	@ fold, progress, tmp211
 939              	.LVL50:
 398:src/main.c    ****             int drawY = y + topH - h;
 940              		.loc 1 398 13 is_stmt 1 view .LVU197
 941              	@ src/main.c:398:             int h = (int)(topH * fold);
 398:src/main.c    ****             int drawY = y + topH - h;
 942              		.loc 1 398 32 is_stmt 0 view .LVU198
 943 01b8 28EE018A 		vmul.f32	s16, s16, s2	@ tmp214, tmp213, fold
 944              	@ src/main.c:400:             DrawCard(p, x, drawY, s, s * fold, x, drawY, cw, h);
 400:src/main.c    ****         } else {
 945              		.loc 1 400 13 view .LVU199
 946 01bc 29EE011A 		vmul.f32	s2, s18, s2	@, s, fold
 947              	.LVL51:
 948              	.L41:
 949              	@ src/main.c:398:             int h = (int)(topH * fold);
 398:src/main.c    ****             int drawY = y + topH - h;
 950              		.loc 1 398 17 view .LVU200
 951 01c0 FDEEC87A 		vcvt.s32.f32	s15, s16	@ h, tmp214
 952 01c4 17EE904A 		vmov	r4, s15	@ int	@ h, h
 953              	.LVL52:
 399:src/main.c    ****             DrawCard(p, x, drawY, s, s * fold, x, drawY, cw, h);
 954              		.loc 1 399 13 is_stmt 1 view .LVU201
 955              	@ src/main.c:400:             DrawCard(p, x, drawY, s, s * fold, x, drawY, cw, h);
 400:src/main.c    ****         } else {
 956              		.loc 1 400 13 is_stmt 0 view .LVU202
 957 01c8 CDED017A 		vstr.32	s15, [sp, #4]	@ int	@ h,
 958              	@ src/main.c:399:             int drawY = y + topH - h;
 399:src/main.c    ****             DrawCard(p, x, drawY, s, s * fold, x, drawY, cw, h);
 959              		.loc 1 399 17 view .LVU203
 960 01cc 3B1B     		subs	r3, r7, r4	@ drawY, _31, h
 961              	.LVL53:
 400:src/main.c    ****         } else {
 962              		.loc 1 400 13 is_stmt 1 view .LVU204
 963 01ce 07EE903A 		vmov	s15, r3	@ int	@ tmp245,
 964 01d2 B8EEE70A 		vcvt.f32.s32	s0, s15	@, tmp245
 965 01d6 FFF7FEFF 		bl	DrawCard		@
 966              	.LVL54:
 400:src/main.c    ****         } else {
 967              		.loc 1 400 13 is_stmt 0 view .LVU205
 968              	.LBE72:
 969 01da A3E7     		b	.L29		@
 970              	.LVL55:
 971              	.L37:
 972              	.LBB73:
 385:src/main.c    ****             int h = (int)(topH * grow);
 973              		.loc 1 385 13 is_stmt 1 view .LVU206
 974              	@ src/main.c:385:             float grow = (progress - 0.5f) / 0.5f;  // 0..1
ARM GAS  /var/folders/ym/cl7zt4994p5_9n084fng6gl80000gn/T//ccxpWZpc.s 			page 27


 385:src/main.c    ****             int h = (int)(topH * grow);
 975              		.loc 1 385 36 is_stmt 0 view .LVU207
 976 01dc 78EEC18A 		vsub.f32	s17, s17, s2	@ tmp203, progress, tmp194
 977              	.LVL56:
 978              	@ src/main.c:388:             DrawCard(d, x, drawY, s, s * grow, x, y + topH - h, cw, h);
 388:src/main.c    ****         }
 979              		.loc 1 388 13 view .LVU208
 980 01e0 4046     		mov	r0, r8	@, d
 981              	@ src/main.c:386:             int h = (int)(topH * grow);
 386:src/main.c    ****             int drawY = y + topH - h;
 982              		.loc 1 386 32 view .LVU209
 983 01e2 B8EEC88A 		vcvt.f32.s32	s16, s16	@ tmp205, topH
 984              	.LVL57:
 985              	@ src/main.c:388:             DrawCard(d, x, drawY, s, s * grow, x, y + topH - h, cw, h);
 388:src/main.c    ****         }
 986              		.loc 1 388 13 view .LVU210
 987 01e6 3246     		mov	r2, r6	@, x
 988 01e8 F0EE490A 		vmov.f32	s1, s18	@, s
 989 01ec 3146     		mov	r1, r6	@, tmp2
 990              	@ src/main.c:385:             float grow = (progress - 0.5f) / 0.5f;  // 0..1
 385:src/main.c    ****             int h = (int)(topH * grow);
 991              		.loc 1 385 19 view .LVU211
 992 01ee 78EEA88A 		vadd.f32	s17, s17, s17	@ grow, tmp203, tmp203
 993              	.LVL58:
 386:src/main.c    ****             int drawY = y + topH - h;
 994              		.loc 1 386 13 is_stmt 1 view .LVU212
 995              	@ src/main.c:388:             DrawCard(d, x, drawY, s, s * grow, x, y + topH - h, cw, h);
 388:src/main.c    ****         }
 996              		.loc 1 388 13 is_stmt 0 view .LVU213
 997 01f2 0095     		str	r5, [sp]	@ cw,
 998              	@ src/main.c:386:             int h = (int)(topH * grow);
 386:src/main.c    ****             int drawY = y + topH - h;
 999              		.loc 1 386 32 view .LVU214
 1000 01f4 28EE288A 		vmul.f32	s16, s16, s17	@ tmp206, tmp205, grow
 1001              	@ src/main.c:388:             DrawCard(d, x, drawY, s, s * grow, x, y + topH - h, cw, h);
 388:src/main.c    ****         }
 1002              		.loc 1 388 13 view .LVU215
 1003 01f8 29EE281A 		vmul.f32	s2, s18, s17	@, s, grow
 1004 01fc E0E7     		b	.L41		@
 1005              	.L45:
 1006 01fe 00BF     		.align	2
 1007              	.L44:
 1008 0200 00000000 		.word	.LANCHOR9
 1009 0204 00000000 		.word	.LANCHOR10
 1010 0208 00000000 		.word	.LANCHOR8
 1011 020c 00000000 		.word	.LANCHOR3
 1012 0210 00000000 		.word	.LANCHOR0
 1013              	.LBE73:
 1014              		.cfi_endproc
 1015              	.LFE28:
 1016              		.size	DrawDigit, .-DrawDigit
 1017              		.section	.text.InitSnow,"ax",%progbits
 1018              		.align	1
 1019              		.p2align 4,,15
 1020              		.syntax unified
 1021              		.thumb
 1022              		.thumb_func
ARM GAS  /var/folders/ym/cl7zt4994p5_9n084fng6gl80000gn/T//ccxpWZpc.s 			page 28


 1023              		.fpu fpv5-sp-d16
 1024              		.type	InitSnow, %function
 1025              	InitSnow:
 1026              	.LFB36:
 412:src/main.c    **** 
 413:src/main.c    **** // ńö╗ÕĖ”ńÖĮĶē▓µÅÅĶŠ╣ńÜäÕåÆÕÅĘ’╝ÜÕģłÕ£© 8 õĖ¬µ¢╣ÕÉæńö╗ńÖĮĶē▓ĶĮ«Õ╗ō’╝īÕåŹńö╗µŁŻÕĖĖķ╗æĶē▓ÕåÆÕÅĘ
 414:src/main.c    **** // Ķ┐ÖµĀĘÕ£©µĘ▒Ķē▓ĶāīµÖ»’╝łFlood/Snow’╝ēõĖŖõ╣¤ĶāĮń£ŗµĖģ
 415:src/main.c    **** static void DrawColon(int x, int y, float cs)
 416:src/main.c    **** {
 417:src/main.c    ****     // ńÖĮĶē▓µÅÅĶŠ╣’╝ł8 õĖ¬ 1px ÕüÅń¦╗’╝ē
 418:src/main.c    ****     pd->graphics->setDrawMode(kDrawModeFillWhite);
 419:src/main.c    ****     for (int dy = -1; dy <= 1; dy++) {
 420:src/main.c    ****         for (int dx = -1; dx <= 1; dx++) {
 421:src/main.c    ****             if (dx == 0 && dy == 0) continue;
 422:src/main.c    ****             pd->graphics->drawScaledBitmap(colonBmp, x + dx, y + dy, cs, cs);
 423:src/main.c    ****         }
 424:src/main.c    ****     }
 425:src/main.c    ****     // µŁŻÕĖĖķ╗æĶē▓ÕåÆÕÅĘ
 426:src/main.c    ****     pd->graphics->setDrawMode(kDrawModeCopy);
 427:src/main.c    ****     pd->graphics->drawScaledBitmap(colonBmp, x, y, cs, cs);
 428:src/main.c    **** }
 429:src/main.c    **** 
 430:src/main.c    **** // ńö╗ MM:SS ń┐╗ńēīµŚČķÆ¤
 431:src/main.c    **** static void DrawClock(void)
 432:src/main.c    **** {
 433:src/main.c    ****     pd->graphics->setDrawMode(kDrawModeCopy);
 434:src/main.c    **** 
 435:src/main.c    ****     // Õ£åńÄ»µĀĘÕ╝Å’╝ÜõĖżĶĪī 2x2 ÕĖāÕ▒Ć’╝łõĖŖĶĪīÕłåķÆ¤’╝īõĖŗĶĪīń¦Æ’╝ē’╝īµĢ░ÕŁŚµø┤Õż¦
 436:src/main.c    ****     if (barStyle == BAR_RING) {
 437:src/main.c    ****         // ÕłåķÆ¤õĖ║ 0’╝łõĖŹĶČ│ 1 ÕłåķÆ¤’╝ē’╝ÜÕÅ¬µśŠńż║µöŠÕż¦Õ▒ģõĖŁńÜäń¦ÆµĢ░
 438:src/main.c    ****         if (digits[0].value == '0' && digits[1].value == '0') {
 439:src/main.c    ****             digitScale = 1.1f;
 440:src/main.c    ****             int cw = (int)(cardW * digitScale);
 441:src/main.c    ****             int ch = (int)(halfH * digitScale) * 2;
 442:src/main.c    ****             int colGap = (int)(8 * digitScale);
 443:src/main.c    ****             int rowW = 2 * cw + colGap;
 444:src/main.c    ****             int startX = (400 - rowW) / 2;
 445:src/main.c    ****             int rowY = (240 - ch) / 2;   // õ╗źÕ£åńÄ»õĖŁÕ┐āÕ×éńø┤Õ▒ģõĖŁ
 446:src/main.c    **** 
 447:src/main.c    ****             DrawDigit(startX, rowY, digits[2].value, digits[2].prev, digits[2].progress, digits[2].
 448:src/main.c    ****             DrawDigit(startX + cw + colGap, rowY, digits[3].value, digits[3].prev, digits[3].progre
 449:src/main.c    ****             return;
 450:src/main.c    ****         }
 451:src/main.c    **** 
 452:src/main.c    ****         digitScale = 0.82f;   // Ķ«® 2x2 ÕŹĪńēćÕøøĶ¦ÆķāĮĶÉĮÕ£©Õ£åńÄ»Õåģ
 453:src/main.c    ****         int cw = (int)(cardW * digitScale);
 454:src/main.c    ****         int ch = (int)(halfH * digitScale) * 2;
 455:src/main.c    ****         int colGap = (int)(8 * digitScale);
 456:src/main.c    ****         int rowGap = (int)(6 * digitScale);
 457:src/main.c    ****         int rowW = 2 * cw + colGap;
 458:src/main.c    ****         int startX = (400 - rowW) / 2;
 459:src/main.c    ****         int totalH = 2 * ch + rowGap;
 460:src/main.c    ****         int topY = (240 - totalH) / 2;   // õ╗źÕ£åńÄ»õĖŁÕ┐ā (120) Õ×éńø┤Õ▒ģõĖŁ
 461:src/main.c    ****         int botY = topY + ch + rowGap;
 462:src/main.c    **** 
 463:src/main.c    ****         // õĖŖĶĪī’╝ÜÕłåķÆ¤õĖżõĮŹ’╝łdigits[0], digits[1]’╝ē
 464:src/main.c    ****         DrawDigit(startX, topY, digits[0].value, digits[0].prev, digits[0].progress, digits[0].dir)
ARM GAS  /var/folders/ym/cl7zt4994p5_9n084fng6gl80000gn/T//ccxpWZpc.s 			page 29


 465:src/main.c    ****         DrawDigit(startX + cw + colGap, topY, digits[1].value, digits[1].prev, digits[1].progress, 
 466:src/main.c    ****         // õĖŗĶĪī’╝Üń¦ÆõĖżõĮŹ’╝łdigits[2], digits[3]’╝ē
 467:src/main.c    ****         DrawDigit(startX, botY, digits[2].value, digits[2].prev, digits[2].progress, digits[2].dir)
 468:src/main.c    ****         DrawDigit(startX + cw + colGap, botY, digits[3].value, digits[3].prev, digits[3].progress, 
 469:src/main.c    ****         return;
 470:src/main.c    ****     }
 471:src/main.c    **** 
 472:src/main.c    ****     digitScale = DIGIT_SCALE;
 473:src/main.c    **** 
 474:src/main.c    ****     int cw = (int)(cardW * digitScale);
 475:src/main.c    ****     int ch = (int)(halfH * digitScale) * 2;
 476:src/main.c    ****     int gap = (int)(8 * digitScale);
 477:src/main.c    ****     int colonW = (int)(20 * digitScale);
 478:src/main.c    ****     int totalW = DIGIT_COUNT * cw + 2 * gap + colonW;
 479:src/main.c    ****     int startX = (400 - totalW) / 2;
 480:src/main.c    ****     // µ░┤µ│óµØĪµĀĘÕ╝Å’╝ÜµŚČķÆ¤ + Ķ┐øÕ║”µØĪµĢ┤õĮōÕ×éńø┤Õ▒ģõĖŁ’╝øÕģČÕ«āµĀĘÕ╝ÅµŚČķÆ¤ÕŹĢńŗ¼Õ▒ģõĖŁ
 481:src/main.c    ****     int y;
 482:src/main.c    ****     if (barStyle == BAR_WATER) {
 483:src/main.c    ****         int barH = 20;
 484:src/main.c    ****         int groupGap = 16;
 485:src/main.c    ****         int groupH = ch + groupGap + barH;
 486:src/main.c    ****         y = (240 - groupH) / 2;
 487:src/main.c    ****     } else {
 488:src/main.c    ****         y = (240 - ch) / 2;
 489:src/main.c    ****     }
 490:src/main.c    **** 
 491:src/main.c    ****     int x = startX;
 492:src/main.c    ****     for (int i = 0; i < DIGIT_COUNT; i++) {
 493:src/main.c    ****         DrawDigit(x, y, digits[i].value, digits[i].prev, digits[i].progress, digits[i].dir);
 494:src/main.c    ****         x += cw + gap;
 495:src/main.c    ****         if (i == 1) {
 496:src/main.c    ****             // ÕåÆÕÅĘÕĖ”ńÖĮĶē▓µÅÅĶŠ╣’╝īÕ£©õ╗╗µäÅĶāīµÖ»’╝łÕÉ½ Flood/Snow’╝ēõĖŖķāĮÕÅ»Ķ¦ü
 497:src/main.c    ****             float cs = (float)ch / 104.0f;
 498:src/main.c    ****             int colonImgW = (int)(18 * cs);
 499:src/main.c    ****             DrawColon(x - gap + (colonW - colonImgW) / 2, y, cs);
 500:src/main.c    ****             x += colonW - gap;
 501:src/main.c    ****         }
 502:src/main.c    ****     }
 503:src/main.c    **** }
 504:src/main.c    **** 
 505:src/main.c    **** // ńö╗ÕĆÆĶ«ĪµŚČĶ┐øÕ║”µØĪ’╝łÕē®õĮÖµŚČķŚ┤’╝īÕĘ”Õ»╣ķĮÉ’╝īÕÉæÕÅ│ķĆÆÕćÅ’╝ē
 506:src/main.c    **** // Ķ┐ÉĶĪīµŚČÕÅ│õŠ¦ĶŠ╣ń╝śÕāÅµ░┤ķØóõĖĆµĀĘõĖŖõĖŗĶĄĘõ╝Å’╝łķĆÉĶĪīµŁŻÕ╝”ÕüÅń¦╗’╝ē’╝īĶÉźķĆĀÕŖ©µĆüµä¤
 507:src/main.c    **** static void DrawWaterBar(void)
 508:src/main.c    **** {
 509:src/main.c    ****     pd->graphics->setDrawMode(kDrawModeCopy);
 510:src/main.c    **** 
 511:src/main.c    ****     // õĖÄµŚČķÆ¤õĖĆĶĄĘÕ×éńø┤Õ▒ģõĖŁ’╝ÜgroupH = µŚČķÆ¤ķ½ś + ķŚ┤ĶĘØ + µØĪķ½ś
 512:src/main.c    ****     int ch = (int)(halfH * DIGIT_SCALE) * 2;
 513:src/main.c    ****     int bh = 20;
 514:src/main.c    ****     int groupGap = 16;
 515:src/main.c    ****     int groupH = ch + groupGap + bh;
 516:src/main.c    ****     int groupTop = (240 - groupH) / 2;
 517:src/main.c    **** 
 518:src/main.c    ****     int bx = 40;
 519:src/main.c    ****     int by = groupTop + ch + groupGap;
 520:src/main.c    ****     int bw = 320;
 521:src/main.c    **** 
ARM GAS  /var/folders/ym/cl7zt4994p5_9n084fng6gl80000gn/T//ccxpWZpc.s 			page 30


 522:src/main.c    ****     float fraction = timer.totalSeconds > 0.0f
 523:src/main.c    ****         ? timer.secondsLeft / timer.totalSeconds
 524:src/main.c    ****         : 0.0f;
 525:src/main.c    ****     if (fraction < 0.0f) fraction = 0.0f;
 526:src/main.c    ****     if (fraction > 1.0f) fraction = 1.0f;
 527:src/main.c    **** 
 528:src/main.c    ****     // ĶĮ©ķüōĶŠ╣µĪå’╝łµĆ╗ķĢ┐Õ║”Õ¦ŗń╗łÕÅ»Ķ¦ü’╝ē
 529:src/main.c    ****     pd->graphics->drawRect(bx, by, bw, bh, kColorBlack);
 530:src/main.c    **** 
 531:src/main.c    ****     float baseW = bw * fraction;
 532:src/main.c    **** 
 533:src/main.c    ****     // ÕÅ¬µ£ēĶ┐ÉĶĪīµŚČµēŹĶĄĘõ╝Å’╝øµī»Õ╣ģķÜÅĶ┐øÕ║”µØĪµĄüķĆ¤ÕÅśÕī¢’╝łĶČŖÕ┐½µĄ¬ĶČŖÕż¦’╝ē
 534:src/main.c    ****     float waveAmp = 0.0f;
 535:src/main.c    ****     if (timer.state == TIMER_RUNNING) {
 536:src/main.c    ****         // µĄüķĆ¤ = µ»Åń¦ÆµÄÆń®║ńÜäÕāÅń┤ĀµĢ░’╝łń║┐µĆ¦µÄÆń®║’╝īń¤ŁĶ«ĪµŚČµø┤Õ┐½’╝ē
 537:src/main.c    ****         float speed = timer.totalSeconds > 0.0f ? bw / timer.totalSeconds : 0.0f;
 538:src/main.c    ****         waveAmp = speed * 3.0f;
 539:src/main.c    ****         if (waveAmp < 1.0f) waveAmp = 1.0f;
 540:src/main.c    ****         if (waveAmp > 3.0f) waveAmp = 3.0f;
 541:src/main.c    ****     }
 542:src/main.c    **** 
 543:src/main.c    ****     // õĖżõĖ¬õĖŹÕÉīķóæńÄć/ķĆ¤Õ║”ńÜäµŁŻÕ╝”ÕÅĀÕŖĀ’╝īµ│óÕ│░µ╝éń¦╗õĖöõĖŹõ╝ÜÕŠłÕ┐½ķćŹÕżŹ’╝īµśŠÕŠŚµø┤Ķć¬ń
 544:src/main.c    ****     const float k1 = 6.2831853f / 20.0f;  // õĖ╗µČīµĄ¬’╝Üµ▓┐ķ½śÕ║”õĖĆõĖ¬µ│óķĢ┐
 545:src/main.c    ****     const float w1 = 2.0f;
 546:src/main.c    ****     const float k2 = 6.2831853f / 7.0f;   // µ¼ĪµČ¤µ╝¬’╝Üµø┤ń¤Łµø┤Õ┐½
 547:src/main.c    ****     const float w2 = 2.0f;
 548:src/main.c    **** 
 549:src/main.c    ****     // ķĆÉĶĪīń╗śÕłČ’╝īµ»ÅĶĪīĶŠ╣ń╝śķÜÅõĖżµ│óÕÅĀÕŖĀÕüÅń¦╗
 550:src/main.c    ****     for (int row = 0; row < bh; row++) {
 551:src/main.c    ****         float edge = baseW;
 552:src/main.c    ****         if (waveAmp > 0.0f) {
 553:src/main.c    ****             float wave = 0.6f * sinf(k1 * row + w1 * lastTime)
 554:src/main.c    ****                        + 0.4f * sinf(k2 * row + w2 * lastTime);
 555:src/main.c    ****             edge += waveAmp * wave;
 556:src/main.c    ****         }
 557:src/main.c    ****         if (edge < 0.0f) edge = 0.0f;
 558:src/main.c    ****         if (edge > bw) edge = (float)bw;
 559:src/main.c    **** 
 560:src/main.c    ****         int w = (int)edge;
 561:src/main.c    ****         if (w > 0) {
 562:src/main.c    ****             pd->graphics->fillRect(bx, by + row, w, 1, kColorBlack);
 563:src/main.c    ****             // µ░┤ķØóÕżäńö╗õĖĆµØĪķ╗æńÖĮõ║żķöÖńÜäµ│Īµ▓½ÕĖ”’╝īÕāÅń┐╗µČīńÜäµĄ¬ĶŖ▒
 564:src/main.c    ****             if (waveAmp > 0.0f) {
 565:src/main.c    ****                 int t = (int)(lastTime * 6.0f);
 566:src/main.c    ****                 // µ£ĆÕż¢µ▓┐ 4 µĀ╝ÕüÜµŻŗńøśÕ╝Åķ╗æńÖĮõ║żķöÖ’╝īÕĮóµłÉµø┤ÕÄÜńÜäµ╗ÜÕŖ©µ│Īµ▓½ÕĖ”
 567:src/main.c    ****                 for (int col = 0; col < 4; col++) {
 568:src/main.c    ****                     int px = w - 1 - col;
 569:src/main.c    ****                     if (px < 0) break;
 570:src/main.c    ****                     if (((t + row + col) & 1) == 0) {
 571:src/main.c    ****                         pd->graphics->fillRect(bx + px, by + row, 1, 1, kColorWhite);
 572:src/main.c    ****                     }
 573:src/main.c    ****                 }
 574:src/main.c    ****             }
 575:src/main.c    ****         }
 576:src/main.c    ****     }
 577:src/main.c    **** }
 578:src/main.c    **** 
ARM GAS  /var/folders/ym/cl7zt4994p5_9n084fng6gl80000gn/T//ccxpWZpc.s 			page 31


 579:src/main.c    **** // Ķ«Īń«ŚÕĮōÕēŹÕē®õĮÖµ»öõŠŗ [0,1]
 580:src/main.c    **** static float RemainingFraction(void)
 581:src/main.c    **** {
 582:src/main.c    ****     float fraction = timer.totalSeconds > 0.0f
 583:src/main.c    ****         ? timer.secondsLeft / timer.totalSeconds
 584:src/main.c    ****         : 0.0f;
 585:src/main.c    ****     if (fraction < 0.0f) fraction = 0.0f;
 586:src/main.c    ****     if (fraction > 1.0f) fraction = 1.0f;
 587:src/main.c    ****     return fraction;
 588:src/main.c    **** }
 589:src/main.c    **** 
 590:src/main.c    **** // µĢ┤Õ▒Åµ░┤õĮŹµĀĘÕ╝Å’╝Üķ╗æĶē▓µ░┤ķØóõ╗ÄõĖŖÕŠĆõĖŗķĆĆÕÄ╗’╝łÕē®õĮÖĶČŖÕżÜķ╗æĶē▓ĶČŖµ╗Ī’╝ē’╝īµ░┤ķØóÕĖ”µ│ó
 591:src/main.c    **** static void DrawFloodBackground(void)
 592:src/main.c    **** {
 593:src/main.c    ****     pd->graphics->setDrawMode(kDrawModeCopy);
 594:src/main.c    **** 
 595:src/main.c    ****     float fraction = RemainingFraction();
 596:src/main.c    **** 
 597:src/main.c    ****     // µ░┤ķØó y’╝ÜÕē®õĮÖµ╗ĪµŚČÕ£©ķĪČķā©’╝łµĢ┤Õ▒Åķ╗æ’╝ē’╝īĶĆŚÕ░ĮµŚČÕ£©Õ║Ģķā©
 598:src/main.c    ****     float surfaceY = 240.0f * (1.0f - fraction);
 599:src/main.c    **** 
 600:src/main.c    ****     // Ķ┐ÉĶĪīµŚČńÜäµ│óÕŖ©Õ╣ģÕ║”’╝łķÜÅµĄüķĆ¤ÕÅśÕī¢’╝ē
 601:src/main.c    ****     float waveAmp = 0.0f;
 602:src/main.c    ****     if (timer.state == TIMER_RUNNING) {
 603:src/main.c    ****         float speed = timer.totalSeconds > 0.0f ? 240.0f / timer.totalSeconds : 0.0f;
 604:src/main.c    ****         waveAmp = speed * 3.0f;
 605:src/main.c    ****         if (waveAmp < 1.0f) waveAmp = 1.0f;
 606:src/main.c    ****         if (waveAmp > 4.0f) waveAmp = 4.0f;
 607:src/main.c    ****     }
 608:src/main.c    **** 
 609:src/main.c    ****     const float k1 = 6.2831853f / 90.0f;   // µ▓┐Õ▒ÅÕ«ĮńÜäõĖ╗µČīµĄ¬
 610:src/main.c    ****     const float w1 = 2.0f;
 611:src/main.c    ****     const float k2 = 6.2831853f / 33.0f;   // µ¼ĪµČ¤µ╝¬
 612:src/main.c    ****     const float w2 = 2.0f;
 613:src/main.c    **** 
 614:src/main.c    ****     // ķĆÉÕłŚń╗śÕłČ’╝īķ╗æĶē▓ÕĪ½Õ£©µ░┤ķØóõ╗źõĖŗ
 615:src/main.c    ****     for (int col = 0; col < 400; col++) {
 616:src/main.c    ****         float top = surfaceY;
 617:src/main.c    ****         if (waveAmp > 0.0f) {
 618:src/main.c    ****             float wave = 0.6f * sinf(k1 * col + w1 * lastTime)
 619:src/main.c    ****                        + 0.4f * sinf(k2 * col + w2 * lastTime);
 620:src/main.c    ****             top += waveAmp * wave;
 621:src/main.c    ****         }
 622:src/main.c    ****         if (top < 0.0f) top = 0.0f;
 623:src/main.c    ****         if (top > 240.0f) top = 240.0f;
 624:src/main.c    **** 
 625:src/main.c    ****         int y0 = (int)top;
 626:src/main.c    ****         if (y0 < 240) {
 627:src/main.c    ****             pd->graphics->fillRect(col, y0, 1, 240 - y0, kColorBlack);
 628:src/main.c    ****             // µ░┤ķØóÕżäķ╗æńÖĮõ║żķöÖµ│Īµ▓½ÕĖ”
 629:src/main.c    ****             if (waveAmp > 0.0f) {
 630:src/main.c    ****                 int t = (int)(lastTime * 6.0f);
 631:src/main.c    ****                 for (int r = 0; r < 4; r++) {
 632:src/main.c    ****                     int py = y0 + r;
 633:src/main.c    ****                     if (py >= 240) break;
 634:src/main.c    ****                     if (((t + col + r) & 1) == 0) {
 635:src/main.c    ****                         pd->graphics->fillRect(col, py, 1, 1, kColorWhite);
ARM GAS  /var/folders/ym/cl7zt4994p5_9n084fng6gl80000gn/T//ccxpWZpc.s 			page 32


 636:src/main.c    ****                     }
 637:src/main.c    ****                 }
 638:src/main.c    ****             }
 639:src/main.c    ****         }
 640:src/main.c    ****     }
 641:src/main.c    **** }
 642:src/main.c    **** 
 643:src/main.c    **** // Õ£åńÄ»µĀĘÕ╝Å’╝ÜµĢ┤Õ▒ÅÕ▒ģõĖŁńÜäĶ┐øÕ║”Õ£åńÄ»’╝īÕē®õĮÖķā©Õłåõ╗ÄķĪČń½»ķĪ║µŚČķÆłÕĪ½Õģģ
 644:src/main.c    **** static void DrawRing(void)
 645:src/main.c    **** {
 646:src/main.c    ****     pd->graphics->setDrawMode(kDrawModeCopy);
 647:src/main.c    **** 
 648:src/main.c    ****     float fraction = RemainingFraction();
 649:src/main.c    **** 
 650:src/main.c    ****     int diameter = 236;
 651:src/main.c    ****     int rx = (400 - diameter) / 2;
 652:src/main.c    ****     int ry = (240 - diameter) / 2;
 653:src/main.c    **** 
 654:src/main.c    ****     // Õ║ĢÕ£łĶĮ©ķüō’╝łń╗åń║┐’╝īÕ¦ŗń╗łÕÅ»Ķ¦ü’╝ē
 655:src/main.c    ****     pd->graphics->drawEllipse(rx, ry, diameter, diameter, 4, 0.0f, 360.0f, kColorBlack);
 656:src/main.c    **** 
 657:src/main.c    ****     // Õē®õĮÖÕ╝¦’╝łń▓Śń║┐’╝īõ╗ÄµŁŻõĖŖµ¢╣ķĪ║µŚČķÆł’╝ē
 658:src/main.c    ****     if (fraction > 0.0f) {
 659:src/main.c    ****         float endAngle = 360.0f * fraction;
 660:src/main.c    ****         pd->graphics->drawEllipse(rx, ry, diameter, diameter, 10, 0.0f, endAngle, kColorBlack);
 661:src/main.c    ****     }
 662:src/main.c    **** }
 663:src/main.c    **** 
 664:src/main.c    **** static float SnowRand(void)
 665:src/main.c    **** {
 666:src/main.c    ****     return (float)rand() / (float)RAND_MAX;
 667:src/main.c    **** }
 668:src/main.c    **** 
 669:src/main.c    **** // ÕłØÕ¦ŗÕī¢ķø¬ĶŖ▒µ▒Ā’╝łķÜÅµ£║õĮŹńĮ«/ķĆ¤Õ║”/µ╝éń¦╗’╝ē
 670:src/main.c    **** static void InitSnow(void)
 671:src/main.c    **** {
 1027              		.loc 1 671 1 is_stmt 1 view -0
 1028              		.cfi_startproc
 1029              		@ args = 0, pretend = 0, frame = 0
 1030              		@ frame_needed = 0, uses_anonymous_args = 0
 672:src/main.c    ****     for (int i = 0; i < SNOW_COUNT; i++) {
 1031              		.loc 1 672 5 view .LVU217
 1032              	.LBB74:
 1033              		.loc 1 672 10 view .LVU218
 1034              	.LVL59:
 1035              		.loc 1 672 21 view .LVU219
 1036              	.LBE74:
 1037              	@ src/main.c:671: {
 671:src/main.c    ****     for (int i = 0; i < SNOW_COUNT; i++) {
 1038              		.loc 1 671 1 is_stmt 0 view .LVU220
 1039 0000 38B5     		push	{r3, r4, r5, lr}	@
 1040              	.LCFI23:
 1041              		.cfi_def_cfa_offset 16
 1042              		.cfi_offset 3, -16
 1043              		.cfi_offset 4, -12
 1044              		.cfi_offset 5, -8
 1045              		.cfi_offset 14, -4
ARM GAS  /var/folders/ym/cl7zt4994p5_9n084fng6gl80000gn/T//ccxpWZpc.s 			page 33


 1046 0002 374C     		ldr	r4, .L52	@ ivtmp.244,
 1047 0004 2DED068B 		vpush.64	{d8, d9, d10}	@
 1048              	.LCFI24:
 1049              		.cfi_def_cfa_offset 40
 1050              		.cfi_offset 80, -40
 1051              		.cfi_offset 81, -36
 1052              		.cfi_offset 82, -32
 1053              		.cfi_offset 83, -28
 1054              		.cfi_offset 84, -24
 1055              		.cfi_offset 85, -20
 1056              	.LBB95:
 1057              	@ src/main.c:675:         snow[i].speed = 20.0f + SnowRand() * 40.0f;   // 20..60 px/s
 673:src/main.c    ****         snow[i].x = SnowRand() * 400.0f;
 674:src/main.c    ****         snow[i].y = SnowRand() * 240.0f;
 675:src/main.c    ****         snow[i].speed = 20.0f + SnowRand() * 40.0f;   // 20..60 px/s
 1058              		.loc 1 675 31 view .LVU221
 1059 0008 F3EE04AA 		vmov.f32	s21, #2.0e+1	@ tmp151,
 1060              	.LBB75:
 1061              	.LBB76:
 1062              	@ src/main.c:666:     return (float)rand() / (float)RAND_MAX;
 666:src/main.c    **** }
 1063              		.loc 1 666 26 view .LVU222
 1064 000c 9FED358A 		vldr.32	s16, .L52+4	@ tmp139,
 1065 0010 04F59655 		add	r5, r4, #4800	@ _56, ivtmp.244,
 1066              	.LBE76:
 1067              	.LBE75:
 1068              	@ src/main.c:673:         snow[i].x = SnowRand() * 400.0f;
 673:src/main.c    ****         snow[i].x = SnowRand() * 400.0f;
 1069              		.loc 1 673 32 view .LVU223
 1070 0014 9FED34AA 		vldr.32	s20, .L52+8	@ tmp141,
 1071              	@ src/main.c:674:         snow[i].y = SnowRand() * 240.0f;
 674:src/main.c    ****         snow[i].speed = 20.0f + SnowRand() * 40.0f;   // 20..60 px/s
 1072              		.loc 1 674 32 view .LVU224
 1073 0018 DFED349A 		vldr.32	s19, .L52+12	@ tmp146,
 1074              	@ src/main.c:675:         snow[i].speed = 20.0f + SnowRand() * 40.0f;   // 20..60 px/s
 1075              		.loc 1 675 31 view .LVU225
 1076 001c 9FED349A 		vldr.32	s18, .L52+16	@ tmp150,
 1077              	@ src/main.c:676:         snow[i].drift = SnowRand() * 6.2831853f;
 676:src/main.c    ****         snow[i].drift = SnowRand() * 6.2831853f;
 1078              		.loc 1 676 36 view .LVU226
 1079 0020 DFED348A 		vldr.32	s17, .L52+20	@ tmp156,
 1080              	.LVL60:
 1081              	.L48:
 673:src/main.c    ****         snow[i].y = SnowRand() * 240.0f;
 1082              		.loc 1 673 9 is_stmt 1 view .LVU227
 1083              	.LBB78:
 1084              	.LBI75:
 664:src/main.c    **** {
 1085              		.loc 1 664 14 view .LVU228
 1086              	.LBB77:
 666:src/main.c    **** }
 1087              		.loc 1 666 5 view .LVU229
 1088              	@ src/main.c:666:     return (float)rand() / (float)RAND_MAX;
 666:src/main.c    **** }
 1089              		.loc 1 666 19 is_stmt 0 view .LVU230
 1090 0024 FFF7FEFF 		bl	rand		@
 1091              	.LVL61:
ARM GAS  /var/folders/ym/cl7zt4994p5_9n084fng6gl80000gn/T//ccxpWZpc.s 			page 34


 1092              	@ src/main.c:666:     return (float)rand() / (float)RAND_MAX;
 666:src/main.c    **** }
 1093              		.loc 1 666 12 view .LVU231
 1094 0028 07EE900A 		vmov	s15, r0	@ int	@ tmp168, tmp168
 1095 002c 1834     		adds	r4, r4, #24	@ ivtmp.244, ivtmp.244,
 1096 002e F8EEE77A 		vcvt.f32.s32	s15, s15	@ tmp137, tmp168
 1097              	@ src/main.c:666:     return (float)rand() / (float)RAND_MAX;
 666:src/main.c    **** }
 1098              		.loc 1 666 26 view .LVU232
 1099 0032 67EE887A 		vmul.f32	s15, s15, s16	@ tmp138, tmp137, tmp139
 1100              	.LBE77:
 1101              	.LBE78:
 1102              	@ src/main.c:673:         snow[i].x = SnowRand() * 400.0f;
 673:src/main.c    ****         snow[i].y = SnowRand() * 240.0f;
 1103              		.loc 1 673 32 view .LVU233
 1104 0036 67EE8A7A 		vmul.f32	s15, s15, s20	@ tmp140, tmp138, tmp141
 1105              	@ src/main.c:673:         snow[i].x = SnowRand() * 400.0f;
 673:src/main.c    ****         snow[i].y = SnowRand() * 240.0f;
 1106              		.loc 1 673 19 view .LVU234
 1107 003a 44ED067A 		vstr.32	s15, [r4, #-24]	@ tmp140, MEM[base: _49, offset: 0B]
 674:src/main.c    ****         snow[i].speed = 20.0f + SnowRand() * 40.0f;   // 20..60 px/s
 1108              		.loc 1 674 9 is_stmt 1 view .LVU235
 1109              	.LBB79:
 1110              	.LBI79:
 664:src/main.c    **** {
 1111              		.loc 1 664 14 view .LVU236
 1112              	.LBB80:
 666:src/main.c    **** }
 1113              		.loc 1 666 5 view .LVU237
 1114              	@ src/main.c:666:     return (float)rand() / (float)RAND_MAX;
 666:src/main.c    **** }
 1115              		.loc 1 666 19 is_stmt 0 view .LVU238
 1116 003e FFF7FEFF 		bl	rand		@
 1117              	.LVL62:
 1118              	@ src/main.c:666:     return (float)rand() / (float)RAND_MAX;
 666:src/main.c    **** }
 1119              		.loc 1 666 12 view .LVU239
 1120 0042 07EE900A 		vmov	s15, r0	@ int	@ tmp169, tmp169
 1121 0046 F8EEE77A 		vcvt.f32.s32	s15, s15	@ tmp142, tmp169
 1122              	@ src/main.c:666:     return (float)rand() / (float)RAND_MAX;
 666:src/main.c    **** }
 1123              		.loc 1 666 26 view .LVU240
 1124 004a 67EE887A 		vmul.f32	s15, s15, s16	@ tmp143, tmp142, tmp139
 1125              	.LBE80:
 1126              	.LBE79:
 1127              	@ src/main.c:674:         snow[i].y = SnowRand() * 240.0f;
 674:src/main.c    ****         snow[i].speed = 20.0f + SnowRand() * 40.0f;   // 20..60 px/s
 1128              		.loc 1 674 32 view .LVU241
 1129 004e 67EEA97A 		vmul.f32	s15, s15, s19	@ tmp145, tmp143, tmp146
 1130              	@ src/main.c:674:         snow[i].y = SnowRand() * 240.0f;
 674:src/main.c    ****         snow[i].speed = 20.0f + SnowRand() * 40.0f;   // 20..60 px/s
 1131              		.loc 1 674 19 view .LVU242
 1132 0052 44ED057A 		vstr.32	s15, [r4, #-20]	@ tmp145, MEM[base: _49, offset: 4B]
 675:src/main.c    ****         snow[i].drift = SnowRand() * 6.2831853f;
 1133              		.loc 1 675 9 is_stmt 1 view .LVU243
 1134              	.LBB81:
 1135              	.LBI81:
ARM GAS  /var/folders/ym/cl7zt4994p5_9n084fng6gl80000gn/T//ccxpWZpc.s 			page 35


 664:src/main.c    **** {
 1136              		.loc 1 664 14 view .LVU244
 1137              	.LBB82:
 666:src/main.c    **** }
 1138              		.loc 1 666 5 view .LVU245
 1139              	@ src/main.c:666:     return (float)rand() / (float)RAND_MAX;
 666:src/main.c    **** }
 1140              		.loc 1 666 19 is_stmt 0 view .LVU246
 1141 0056 FFF7FEFF 		bl	rand		@
 1142              	.LVL63:
 1143              	@ src/main.c:666:     return (float)rand() / (float)RAND_MAX;
 666:src/main.c    **** }
 1144              		.loc 1 666 12 view .LVU247
 1145 005a 07EE900A 		vmov	s15, r0	@ int	@ tmp170, tmp170
 1146              	.LBE82:
 1147              	.LBE81:
 1148              	@ src/main.c:675:         snow[i].speed = 20.0f + SnowRand() * 40.0f;   // 20..60 px/s
 675:src/main.c    ****         snow[i].drift = SnowRand() * 6.2831853f;
 1149              		.loc 1 675 31 view .LVU248
 1150 005e B0EE6A7A 		vmov.f32	s14, s21	@ _4, tmp151
 1151              	.LBB84:
 1152              	.LBB83:
 1153              	@ src/main.c:666:     return (float)rand() / (float)RAND_MAX;
 666:src/main.c    **** }
 1154              		.loc 1 666 12 view .LVU249
 1155 0062 F8EEE77A 		vcvt.f32.s32	s15, s15	@ tmp147, tmp170
 1156              	@ src/main.c:666:     return (float)rand() / (float)RAND_MAX;
 666:src/main.c    **** }
 1157              		.loc 1 666 26 view .LVU250
 1158 0066 67EE887A 		vmul.f32	s15, s15, s16	@ tmp148, tmp147, tmp139
 1159              	.LBE83:
 1160              	.LBE84:
 1161              	@ src/main.c:675:         snow[i].speed = 20.0f + SnowRand() * 40.0f;   // 20..60 px/s
 675:src/main.c    ****         snow[i].drift = SnowRand() * 6.2831853f;
 1162              		.loc 1 675 31 view .LVU251
 1163 006a A7EE897A 		vfma.f32	s14, s15, s18	@ _4, tmp148, tmp150
 1164              	@ src/main.c:675:         snow[i].speed = 20.0f + SnowRand() * 40.0f;   // 20..60 px/s
 675:src/main.c    ****         snow[i].drift = SnowRand() * 6.2831853f;
 1165              		.loc 1 675 23 view .LVU252
 1166 006e 04ED047A 		vstr.32	s14, [r4, #-16]	@ _4, MEM[base: _49, offset: 8B]
 1167              		.loc 1 676 9 is_stmt 1 view .LVU253
 1168              	.LBB85:
 1169              	.LBI85:
 664:src/main.c    **** {
 1170              		.loc 1 664 14 view .LVU254
 1171              	.LBB86:
 666:src/main.c    **** }
 1172              		.loc 1 666 5 view .LVU255
 1173              	@ src/main.c:666:     return (float)rand() / (float)RAND_MAX;
 666:src/main.c    **** }
 1174              		.loc 1 666 19 is_stmt 0 view .LVU256
 1175 0072 FFF7FEFF 		bl	rand		@
 1176              	.LVL64:
 1177              	@ src/main.c:666:     return (float)rand() / (float)RAND_MAX;
 666:src/main.c    **** }
 1178              		.loc 1 666 12 view .LVU257
 1179 0076 07EE900A 		vmov	s15, r0	@ int	@ tmp171, tmp171
ARM GAS  /var/folders/ym/cl7zt4994p5_9n084fng6gl80000gn/T//ccxpWZpc.s 			page 36


 1180 007a F8EEE77A 		vcvt.f32.s32	s15, s15	@ tmp152, tmp171
 1181              	@ src/main.c:666:     return (float)rand() / (float)RAND_MAX;
 666:src/main.c    **** }
 1182              		.loc 1 666 26 view .LVU258
 1183 007e 67EE887A 		vmul.f32	s15, s15, s16	@ tmp153, tmp152, tmp139
 1184              	.LBE86:
 1185              	.LBE85:
 1186              	@ src/main.c:676:         snow[i].drift = SnowRand() * 6.2831853f;
 1187              		.loc 1 676 36 view .LVU259
 1188 0082 67EEA87A 		vmul.f32	s15, s15, s17	@ tmp155, tmp153, tmp156
 1189              	@ src/main.c:676:         snow[i].drift = SnowRand() * 6.2831853f;
 1190              		.loc 1 676 23 view .LVU260
 1191 0086 44ED037A 		vstr.32	s15, [r4, #-12]	@ tmp155, MEM[base: _49, offset: 12B]
 677:src/main.c    ****         snow[i].driftAmp = 4.0f + SnowRand() * 8.0f;  // 4..12 px
 1192              		.loc 1 677 9 is_stmt 1 view .LVU261
 1193              	.LBB87:
 1194              	.LBI87:
 664:src/main.c    **** {
 1195              		.loc 1 664 14 view .LVU262
 1196              	.LBB88:
 666:src/main.c    **** }
 1197              		.loc 1 666 5 view .LVU263
 1198              	@ src/main.c:666:     return (float)rand() / (float)RAND_MAX;
 666:src/main.c    **** }
 1199              		.loc 1 666 19 is_stmt 0 view .LVU264
 1200 008a FFF7FEFF 		bl	rand		@
 1201              	.LVL65:
 1202              	@ src/main.c:666:     return (float)rand() / (float)RAND_MAX;
 666:src/main.c    **** }
 1203              		.loc 1 666 12 view .LVU265
 1204 008e 07EE900A 		vmov	s15, r0	@ int	@ tmp172, tmp172
 1205              	.LBE88:
 1206              	.LBE87:
 1207              	@ src/main.c:677:         snow[i].driftAmp = 4.0f + SnowRand() * 8.0f;  // 4..12 px
 1208              		.loc 1 677 33 view .LVU266
 1209 0092 F2EE006A 		vmov.f32	s13, #8.0e+0	@ tmp160,
 1210 0096 B1EE007A 		vmov.f32	s14, #4.0e+0	@ tmp161,
 1211              	.LBB90:
 1212              	.LBB89:
 1213              	@ src/main.c:666:     return (float)rand() / (float)RAND_MAX;
 666:src/main.c    **** }
 1214              		.loc 1 666 12 view .LVU267
 1215 009a F8EEE77A 		vcvt.f32.s32	s15, s15	@ tmp157, tmp172
 1216              	@ src/main.c:666:     return (float)rand() / (float)RAND_MAX;
 666:src/main.c    **** }
 1217              		.loc 1 666 26 view .LVU268
 1218 009e 67EE887A 		vmul.f32	s15, s15, s16	@ tmp158, tmp157, tmp139
 1219              	.LBE89:
 1220              	.LBE90:
 1221              	@ src/main.c:677:         snow[i].driftAmp = 4.0f + SnowRand() * 8.0f;  // 4..12 px
 1222              		.loc 1 677 33 view .LVU269
 1223 00a2 A7EEA67A 		vfma.f32	s14, s15, s13	@ _7, tmp158, tmp160
 1224              	@ src/main.c:677:         snow[i].driftAmp = 4.0f + SnowRand() * 8.0f;  // 4..12 px
 1225              		.loc 1 677 26 view .LVU270
 1226 00a6 04ED027A 		vstr.32	s14, [r4, #-8]	@ _7, MEM[base: _49, offset: 16B]
 678:src/main.c    ****         snow[i].size = (SnowRand() < 0.5f) ? 2 : 3;
 1227              		.loc 1 678 9 is_stmt 1 view .LVU271
ARM GAS  /var/folders/ym/cl7zt4994p5_9n084fng6gl80000gn/T//ccxpWZpc.s 			page 37


 1228              	.LBB91:
 1229              	.LBI91:
 664:src/main.c    **** {
 1230              		.loc 1 664 14 view .LVU272
 1231              	.LBB92:
 666:src/main.c    **** }
 1232              		.loc 1 666 5 view .LVU273
 1233              	@ src/main.c:666:     return (float)rand() / (float)RAND_MAX;
 666:src/main.c    **** }
 1234              		.loc 1 666 19 is_stmt 0 view .LVU274
 1235 00aa FFF7FEFF 		bl	rand		@
 1236              	.LVL66:
 1237              	@ src/main.c:666:     return (float)rand() / (float)RAND_MAX;
 666:src/main.c    **** }
 1238              		.loc 1 666 12 view .LVU275
 1239 00ae 07EE900A 		vmov	s15, r0	@ int	@ tmp173, tmp173
 1240              	.LBE92:
 1241              	.LBE91:
 1242              	@ src/main.c:678:         snow[i].size = (SnowRand() < 0.5f) ? 2 : 3;
 1243              		.loc 1 678 48 view .LVU276
 1244 00b2 B6EE007A 		vmov.f32	s14, #5.0e-1	@ tmp165,
 1245              	.LBB94:
 1246              	.LBB93:
 1247              	@ src/main.c:666:     return (float)rand() / (float)RAND_MAX;
 666:src/main.c    **** }
 1248              		.loc 1 666 12 view .LVU277
 1249 00b6 F8EEE77A 		vcvt.f32.s32	s15, s15	@ tmp162, tmp173
 1250              	@ src/main.c:666:     return (float)rand() / (float)RAND_MAX;
 666:src/main.c    **** }
 1251              		.loc 1 666 26 view .LVU278
 1252 00ba 67EE887A 		vmul.f32	s15, s15, s16	@ tmp163, tmp162, tmp139
 1253              	.LBE93:
 1254              	.LBE94:
 1255              	@ src/main.c:678:         snow[i].size = (SnowRand() < 0.5f) ? 2 : 3;
 1256              		.loc 1 678 48 view .LVU279
 1257 00be F4EEC77A 		vcmpe.f32	s15, s14	@ tmp163, tmp165
 1258 00c2 F1EE10FA 		vmrs	APSR_nzcv, FPSCR
 1259 00c6 4CBF     		ite	mi
 1260 00c8 0223     		movmi	r3, #2	@ iftmp.90_9,
 1261 00ca 0323     		movpl	r3, #3	@ iftmp.90_9,
 1262              	@ src/main.c:678:         snow[i].size = (SnowRand() < 0.5f) ? 2 : 3;
 1263              		.loc 1 678 22 view .LVU280
 1264 00cc 44F8043C 		str	r3, [r4, #-4]	@ iftmp.90_9, MEM[base: _49, offset: 20B]
 672:src/main.c    ****         snow[i].x = SnowRand() * 400.0f;
 1265              		.loc 1 672 37 is_stmt 1 view .LVU281
 672:src/main.c    ****         snow[i].x = SnowRand() * 400.0f;
 1266              		.loc 1 672 21 view .LVU282
 1267              	@ src/main.c:672:     for (int i = 0; i < SNOW_COUNT; i++) {
 672:src/main.c    ****         snow[i].x = SnowRand() * 400.0f;
 1268              		.loc 1 672 5 is_stmt 0 view .LVU283
 1269 00d0 AC42     		cmp	r4, r5	@ ivtmp.244, _56
 1270 00d2 A7D1     		bne	.L48		@,
 1271              	.LBE95:
 679:src/main.c    ****     }
 680:src/main.c    ****     snowInited = 1;
 1272              		.loc 1 680 5 is_stmt 1 view .LVU284
 1273              	@ src/main.c:680:     snowInited = 1;
ARM GAS  /var/folders/ym/cl7zt4994p5_9n084fng6gl80000gn/T//ccxpWZpc.s 			page 38


 1274              		.loc 1 680 16 is_stmt 0 view .LVU285
 1275 00d4 084B     		ldr	r3, .L52+24	@ tmp166,
 1276 00d6 0122     		movs	r2, #1	@ tmp167,
 1277              	@ src/main.c:681: }
 681:src/main.c    **** }
 1278              		.loc 1 681 1 view .LVU286
 1279 00d8 BDEC068B 		vldm	sp!, {d8-d10}	@,
 1280              	.LCFI25:
 1281              		.cfi_restore 84
 1282              		.cfi_restore 85
 1283              		.cfi_restore 82
 1284              		.cfi_restore 83
 1285              		.cfi_restore 80
 1286              		.cfi_restore 81
 1287              		.cfi_def_cfa_offset 16
 1288              	@ src/main.c:680:     snowInited = 1;
 680:src/main.c    **** }
 1289              		.loc 1 680 16 view .LVU287
 1290 00dc 1A60     		str	r2, [r3]	@ tmp167, snowInited
 1291              	@ src/main.c:681: }
 1292              		.loc 1 681 1 view .LVU288
 1293 00de 38BD     		pop	{r3, r4, r5, pc}	@
 1294              	.L53:
 1295              		.align	2
 1296              	.L52:
 1297 00e0 00000000 		.word	snow
 1298 00e4 00000030 		.word	805306368
 1299 00e8 0000C843 		.word	1137180672
 1300 00ec 00007043 		.word	1131413504
 1301 00f0 00002042 		.word	1109393408
 1302 00f4 DB0FC940 		.word	1086918619
 1303 00f8 00000000 		.word	.LANCHOR11
 1304              		.cfi_endproc
 1305              	.LFE36:
 1306              		.size	InitSnow, .-InitSnow
 1307              		.section	.rodata.update.str1.4,"aMS",%progbits,1
 1308              		.align	2
 1309              	.LC1:
 1310 0000 25303264 		.ascii	"%02d:%02d\000"
 1310      3A253032 
 1310      6400
 1311 000a 0000     		.align	2
 1312              	.LC2:
 1313 000c 256400   		.ascii	"%d\000"
 1314              		.section	.text.update,"ax",%progbits
 1315              		.align	1
 1316              		.p2align 4,,15
 1317              		.syntax unified
 1318              		.thumb
 1319              		.thumb_func
 1320              		.fpu fpv5-sp-d16
 1321              		.type	update, %function
 1322              	update:
 1323              	.LVL67:
 1324              	.LFB44:
 682:src/main.c    **** 
 683:src/main.c    **** // ÕĮōÕēŹµ┤╗ĶĘāķø¬ĶŖ▒µĢ░’╝ÜÕē®õĮÖĶČŖÕżÜķø¬ĶČŖÕ»å’╝īķÜÅÕē®õĮÖµŚČķŚ┤ÕćÅÕ░æĶĆīÕÅśń©Ć’╝łÕż®ń®║Õ£©µöČń╝®
ARM GAS  /var/folders/ym/cl7zt4994p5_9n084fng6gl80000gn/T//ccxpWZpc.s 			page 39


 684:src/main.c    **** static int SnowActiveCount(void)
 685:src/main.c    **** {
 686:src/main.c    ****     int n = (int)(SNOW_COUNT * RemainingFraction());
 687:src/main.c    ****     if (n < 6) n = 6;                 // õ┐ØńĢÖµ£ĆÕ░æķćÅ’╝īõĖŹõ╝ÜÕ«īÕģ©ń®║
 688:src/main.c    ****     if (n > SNOW_COUNT) n = SNOW_COUNT;
 689:src/main.c    ****     return n;
 690:src/main.c    **** }
 691:src/main.c    **** 
 692:src/main.c    **** // µø┤µ¢░ķø¬ĶŖ▒’╝Üõ╗ģÕ£©Ķ«ĪµŚČĶ┐ÉĶĪīµŚČķŻśĶÉĮ’╝īĶÉĮÕł░ķø¬ķØóõ╗źõĖŗÕłÖõ╗ÄķĪČķā©ķćŹńö¤
 693:src/main.c    **** static void UpdateSnow(float dt)
 694:src/main.c    **** {
 695:src/main.c    ****     if (!snowInited) InitSnow();
 696:src/main.c    ****     if (timer.state != TIMER_RUNNING) return;
 697:src/main.c    **** 
 698:src/main.c    ****     int active = SnowActiveCount();
 699:src/main.c    ****     float surfaceY = 240.0f * RemainingFraction();   // ķø¬ķØó y
 700:src/main.c    ****     for (int i = 0; i < active; i++) {
 701:src/main.c    ****         snow[i].y += snow[i].speed * dt;
 702:src/main.c    ****         snow[i].drift += dt * 1.5f;
 703:src/main.c    ****         if (snow[i].y >= surfaceY) {
 704:src/main.c    ****             snow[i].y = -2.0f;
 705:src/main.c    ****             snow[i].x = SnowRand() * 400.0f;
 706:src/main.c    ****             snow[i].speed = 20.0f + SnowRand() * 40.0f;
 707:src/main.c    ****         }
 708:src/main.c    ****     }
 709:src/main.c    **** }
 710:src/main.c    **** 
 711:src/main.c    **** // õĖŗķø¬µĀĘÕ╝Å’╝Üķ╗æÕż£ń®║ + Õ║Ģķā©ńÖĮķø¬ÕĀåń¦»’╝łÕē®õĮÖĶČŖÕ░æķø¬ĶČŖķ½ś’╝ē+ ńÖĮķø¬ĶŖ▒ķŻśĶÉĮ
 712:src/main.c    **** static void DrawSnowBackground(void)
 713:src/main.c    **** {
 714:src/main.c    ****     pd->graphics->setDrawMode(kDrawModeCopy);
 715:src/main.c    **** 
 716:src/main.c    ****     // ķ╗æĶē▓Õż£ń®║ķō║µ╗Ī
 717:src/main.c    ****     pd->graphics->fillRect(0, 0, 400, 240, kColorBlack);
 718:src/main.c    **** 
 719:src/main.c    ****     // Õ║Ģķā©ń¦»ķø¬’╝ÜńÖĮĶē▓õ╗ÄÕ║ĢÕŠĆõĖŖÕĀåń¦»’╝īķø¬ķØóÕĖ”ĶĮ╗ÕŠ«µ│óń║╣
 720:src/main.c    ****     float surfaceY = 240.0f * RemainingFraction();
 721:src/main.c    ****     const float k1 = 6.2831853f / 70.0f;
 722:src/main.c    ****     const float k2 = 6.2831853f / 27.0f;
 723:src/main.c    ****     for (int col = 0; col < 400; col++) {
 724:src/main.c    ****         float wave = 0.6f * sinf(k1 * col) + 0.4f * sinf(k2 * col + lastTime * 0.5f);
 725:src/main.c    ****         float top = surfaceY + 3.0f * wave;
 726:src/main.c    ****         if (top < 0.0f) top = 0.0f;
 727:src/main.c    ****         if (top > 240.0f) top = 240.0f;
 728:src/main.c    ****         int y0 = (int)top;
 729:src/main.c    ****         if (y0 < 240) {
 730:src/main.c    ****             pd->graphics->fillRect(col, y0, 1, 240 - y0, kColorWhite);
 731:src/main.c    ****         }
 732:src/main.c    ****     }
 733:src/main.c    **** 
 734:src/main.c    ****     // ķŻśĶÉĮńÜäńÖĮķø¬ĶŖ▒’╝łÕÅ¬ńö╗Õ£©ķø¬ķØóõ╗źõĖŖ’╝ē’╝īµĢ░ķćÅķÜÅÕē®õĮÖµŚČķŚ┤ÕćÅÕ░æ
 735:src/main.c    ****     if (!snowInited) InitSnow();
 736:src/main.c    ****     int active = SnowActiveCount();
 737:src/main.c    ****     for (int i = 0; i < active; i++) {
 738:src/main.c    ****         int py = (int)snow[i].y;
 739:src/main.c    ****         if (py < 0) continue;
 740:src/main.c    ****         int px = (int)(snow[i].x + snow[i].driftAmp * sinf(snow[i].drift));
ARM GAS  /var/folders/ym/cl7zt4994p5_9n084fng6gl80000gn/T//ccxpWZpc.s 			page 40


 741:src/main.c    ****         if (px < 0) px += 400;
 742:src/main.c    ****         if (px >= 400) px -= 400;
 743:src/main.c    ****         pd->graphics->fillRect(px, py, snow[i].size, snow[i].size, kColorWhite);
 744:src/main.c    ****     }
 745:src/main.c    **** }
 746:src/main.c    **** 
 747:src/main.c    **** // µĀ╣µŹ«ÕĮōÕēŹµĀĘÕ╝Åń╗śÕłČĶ┐øÕ║”µīćńż║
 748:src/main.c    **** static void DrawProgressBar(void)
 749:src/main.c    **** {
 750:src/main.c    ****     if (barStyle == BAR_WATER) {
 751:src/main.c    ****         DrawWaterBar();
 752:src/main.c    ****     } else if (barStyle == BAR_RING) {
 753:src/main.c    ****         DrawRing();
 754:src/main.c    ****     }
 755:src/main.c    ****     // BAR_FLOOD ńö▒ĶāīµÖ»ń╗śÕłČ’╝łÕ£©µŚČķÆ¤õ╣ŗÕēŹ’╝ē’╝īµŁżÕżäõĖŹÕżäńÉå
 756:src/main.c    **** }
 757:src/main.c    **** 
 758:src/main.c    **** // ńö╗ÕĖ”ńÖĮĶē▓µÅÅĶŠ╣ńÜäµ¢ćÕŁŚ’╝īÕ£©õ╗╗µäÅĶāīµÖ»õĖŖķāĮÕÅ»Ķ¦ü
 759:src/main.c    **** static void DrawTextOutlined(const char* text, int x, int y)
 760:src/main.c    **** {
 761:src/main.c    ****     int len = (int)strlen(text);
 762:src/main.c    ****     // ńÖĮĶē▓µÅÅĶŠ╣’╝ł8 õĖ¬ 1px ÕüÅń¦╗’╝ē
 763:src/main.c    ****     pd->graphics->setDrawMode(kDrawModeFillWhite);
 764:src/main.c    ****     for (int dy = -1; dy <= 1; dy++) {
 765:src/main.c    ****         for (int dx = -1; dx <= 1; dx++) {
 766:src/main.c    ****             if (dx == 0 && dy == 0) continue;
 767:src/main.c    ****             pd->graphics->drawText(text, len, kASCIIEncoding, x + dx, y + dy);
 768:src/main.c    ****         }
 769:src/main.c    ****     }
 770:src/main.c    ****     // µŁŻÕĖĖķ╗æĶē▓µ¢ćÕŁŚ
 771:src/main.c    ****     pd->graphics->setDrawMode(kDrawModeFillBlack);
 772:src/main.c    ****     pd->graphics->drawText(text, len, kASCIIEncoding, x, y);
 773:src/main.c    **** }
 774:src/main.c    **** 
 775:src/main.c    **** // READY ńŖČµĆü’╝ÜÕ£©ÕÅ│õŠ¦ń½¢µÄÆķóäĶ¦łµēĆµ£ēµŚČķĢ┐ķóäĶ«Š’╝īÕĮōÕēŹķĪ╣ķ½śõ║«
 776:src/main.c    **** static void DrawPresetList(void)
 777:src/main.c    **** {
 778:src/main.c    ****     if (!uiFont) return;
 779:src/main.c    ****     pd->graphics->setFont(uiFont);
 780:src/main.c    **** 
 781:src/main.c    ****     int fontH = pd->graphics->getFontHeight(uiFont);
 782:src/main.c    ****     int rowH = fontH + 8;
 783:src/main.c    ****     int totalH = PRESET_COUNT * rowH;
 784:src/main.c    ****     int startY = (240 - totalH) / 2;
 785:src/main.c    ****     int colCenter = 378;   // µĢ░ÕŁŚÕłŚńÜäµ░┤Õ╣│õĖŁÕ┐ā
 786:src/main.c    **** 
 787:src/main.c    ****     for (int i = 0; i < PRESET_COUNT; i++) {
 788:src/main.c    ****         // ÕÅŹÕ║ÅµśŠńż║’╝Üµ£ĆÕż¦ÕĆ╝Õ£©ķĪČķā©’╝īµ£ĆÕ░ÅÕĆ╝Õ£©Õ║Ģķā©
 789:src/main.c    ****         int preset = timePresets[PRESET_COUNT - 1 - i];
 790:src/main.c    ****         char label[8];
 791:src/main.c    ****         snprintf(label, sizeof(label), "%d", preset);
 792:src/main.c    ****         int tw = pd->graphics->getTextWidth(uiFont, label, strlen(label), kASCIIEncoding, 0);
 793:src/main.c    ****         int ty = startY + i * rowH + (rowH - fontH) / 2;
 794:src/main.c    ****         int tx = colCenter - tw / 2;   // Õ▒ģõĖŁÕ»╣ķĮÉ
 795:src/main.c    **** 
 796:src/main.c    ****         if (preset == time) {
 797:src/main.c    ****             // ķĆēõĖŁķĪ╣’╝ÜĶ┤┤ÕÉłµ¢ćÕŁŚńÜäńÖĮÕ║ĢÕ£åĶ¦ÆµĪå + ķ╗æÕŁŚ
ARM GAS  /var/folders/ym/cl7zt4994p5_9n084fng6gl80000gn/T//ccxpWZpc.s 			page 41


 798:src/main.c    ****             int pad = 5;
 799:src/main.c    ****             int boxW = tw + pad * 2;
 800:src/main.c    ****             int boxLeft = colCenter - boxW / 2;
 801:src/main.c    ****             pd->graphics->fillRect(boxLeft, startY + i * rowH + 1, boxW, rowH - 2, kColorWhite);
 802:src/main.c    ****             pd->graphics->drawRect(boxLeft, startY + i * rowH + 1, boxW, rowH - 2, kColorBlack);
 803:src/main.c    ****             pd->graphics->setDrawMode(kDrawModeFillBlack);
 804:src/main.c    ****             pd->graphics->drawText(label, strlen(label), kASCIIEncoding, tx, ty);
 805:src/main.c    ****         } else {
 806:src/main.c    ****             DrawTextOutlined(label, tx, ty);
 807:src/main.c    ****         }
 808:src/main.c    ****     }
 809:src/main.c    **** 
 810:src/main.c    ****     pd->graphics->setDrawMode(kDrawModeCopy);
 811:src/main.c    **** }
 812:src/main.c    **** 
 813:src/main.c    **** // ń╗śÕłČńĢīķØó
 814:src/main.c    **** static void Draw(void)
 815:src/main.c    **** {
 816:src/main.c    ****     pd->graphics->clear(kColorWhite);
 817:src/main.c    **** 
 818:src/main.c    ****     if (barStyle == BAR_FLOOD) {
 819:src/main.c    ****         DrawFloodBackground();
 820:src/main.c    ****     } else if (barStyle == BAR_SNOW) {
 821:src/main.c    ****         DrawSnowBackground();
 822:src/main.c    ****     }
 823:src/main.c    **** 
 824:src/main.c    ****     // µÜéÕü£µŚČ’╝ÜµŚČķÆ¤ÕüÜÕ╣▓ÕćĆńÜäÕ╝Ć/Õģ│ķŚ¬ńāü’╝łÕēŹ 60% µśŠńż║ŃĆüÕÉÄ 40% ķÜÉĶŚÅ’╝ē
 825:src/main.c    ****     int hideClock = 0;
 826:src/main.c    ****     if (timer.state == TIMER_PAUSED) {
 827:src/main.c    ****         float phase = pauseBlink / PAUSE_BLINK_PERIOD;
 828:src/main.c    ****         if (phase >= 0.6f) hideClock = 1;
 829:src/main.c    ****     }
 830:src/main.c    **** 
 831:src/main.c    ****     if (!hideClock) {
 832:src/main.c    ****         DrawClock();
 833:src/main.c    ****     }
 834:src/main.c    **** 
 835:src/main.c    ****     DrawProgressBar();
 836:src/main.c    **** 
 837:src/main.c    ****     if (timer.state == TIMER_READY) {
 838:src/main.c    ****         DrawPresetList();
 839:src/main.c    ****     }
 840:src/main.c    **** }
 841:src/main.c    **** 
 842:src/main.c    **** // µ»ÅÕĖ¦µē¦ĶĪī
 843:src/main.c    **** static int update(void* userdata)
 844:src/main.c    **** {
 1325              		.loc 1 844 1 is_stmt 1 view -0
 1326              		.cfi_startproc
 1327              		@ args = 0, pretend = 0, frame = 48
 1328              		@ frame_needed = 0, uses_anonymous_args = 0
 845:src/main.c    ****     (void)userdata;
 1329              		.loc 1 845 5 view .LVU290
 846:src/main.c    **** 
 847:src/main.c    ****     static TimerState prevState = TIMER_READY;
 1330              		.loc 1 847 5 view .LVU291
 848:src/main.c    **** 
ARM GAS  /var/folders/ym/cl7zt4994p5_9n084fng6gl80000gn/T//ccxpWZpc.s 			page 42


 849:src/main.c    ****     float now = pd->system->getElapsedTime();
 1331              		.loc 1 849 5 view .LVU292
 1332              	@ src/main.c:844: {
 844:src/main.c    ****     (void)userdata;
 1333              		.loc 1 844 1 is_stmt 0 view .LVU293
 1334 0000 2DE9F04F 		push	{r4, r5, r6, r7, r8, r9, r10, fp, lr}	@
 1335              	.LCFI26:
 1336              		.cfi_def_cfa_offset 36
 1337              		.cfi_offset 4, -36
 1338              		.cfi_offset 5, -32
 1339              		.cfi_offset 6, -28
 1340              		.cfi_offset 7, -24
 1341              		.cfi_offset 8, -20
 1342              		.cfi_offset 9, -16
 1343              		.cfi_offset 10, -12
 1344              		.cfi_offset 11, -8
 1345              		.cfi_offset 14, -4
 1346              	@ src/main.c:849:     float now = pd->system->getElapsedTime();
 1347              		.loc 1 849 19 view .LVU294
 1348 0004 DFF81492 		ldr	r9, .L390+52	@ tmp1512,
 1349              	@ src/main.c:850:     float dt = now - lastTime;
 850:src/main.c    ****     float dt = now - lastTime;
 1350              		.loc 1 850 20 view .LVU295
 1351 0008 DFF81482 		ldr	r8, .L390+56	@ tmp1505,
 1352              	@ src/main.c:849:     float now = pd->system->getElapsedTime();
 849:src/main.c    ****     float dt = now - lastTime;
 1353              		.loc 1 849 19 view .LVU296
 1354 000c D9F80030 		ldr	r3, [r9]	@ pd, pd
 1355              	.LBB191:
 1356              	.LBB192:
 1357              	@ src/main.c:240:     if (timer.state == TIMER_READY) {
 240:src/main.c    ****         // õĖŖ/õĖŗµ¢╣ÕÉæķö«Õ£©ķóäĶ«ŠµŚČķĢ┐õ╣ŗķŚ┤ÕłćµŹó’╝łµŚĀńÄ»ń╗Ģ’╝ē
 1358              		.loc 1 240 14 view .LVU297
 1359 0010 DFF810B2 		ldr	fp, .L390+60	@ tmp1506,
 1360              	.LBE192:
 1361              	.LBE191:
 1362              	@ src/main.c:849:     float now = pd->system->getElapsedTime();
 849:src/main.c    ****     float dt = now - lastTime;
 1363              		.loc 1 849 27 view .LVU298
 1364 0014 1B68     		ldr	r3, [r3]	@ pd.33_1->system, pd.33_1->system
 1365              	@ src/main.c:844: {
 844:src/main.c    ****     (void)userdata;
 1366              		.loc 1 844 1 view .LVU299
 1367 0016 2DED0A8B 		vpush.64	{d8, d9, d10, d11, d12}	@
 1368              	.LCFI27:
 1369              		.cfi_def_cfa_offset 76
 1370              		.cfi_offset 80, -76
 1371              		.cfi_offset 81, -72
 1372              		.cfi_offset 82, -68
 1373              		.cfi_offset 83, -64
 1374              		.cfi_offset 84, -60
 1375              		.cfi_offset 85, -56
 1376              		.cfi_offset 86, -52
 1377              		.cfi_offset 87, -48
 1378              		.cfi_offset 88, -44
 1379              		.cfi_offset 89, -40
 1380              	@ src/main.c:849:     float now = pd->system->getElapsedTime();
ARM GAS  /var/folders/ym/cl7zt4994p5_9n084fng6gl80000gn/T//ccxpWZpc.s 			page 43


 849:src/main.c    ****     float dt = now - lastTime;
 1381              		.loc 1 849 17 view .LVU300
 1382 001a DB6F     		ldr	r3, [r3, #124]	@ _2->getElapsedTime, _2->getElapsedTime
 1383              	@ src/main.c:844: {
 844:src/main.c    ****     (void)userdata;
 1384              		.loc 1 844 1 view .LVU301
 1385 001c 8FB0     		sub	sp, sp, #60	@,,
 1386              	.LCFI28:
 1387              		.cfi_def_cfa_offset 136
 1388              	@ src/main.c:849:     float now = pd->system->getElapsedTime();
 849:src/main.c    ****     float dt = now - lastTime;
 1389              		.loc 1 849 17 view .LVU302
 1390 001e 9847     		blx	r3		@ _2->getElapsedTime
 1391              	.LVL68:
 1392              	.LBB229:
 1393              	.LBB219:
 1394              	@ src/main.c:239:     pd->system->getButtonState(&current, &pushed, &released);
 239:src/main.c    ****     if (timer.state == TIMER_READY) {
 1395              		.loc 1 239 7 view .LVU303
 1396 0020 D9F80030 		ldr	r3, [r9]	@ pd, pd
 1397              	.LBE219:
 1398              	.LBE229:
 1399              	@ src/main.c:850:     float dt = now - lastTime;
 1400              		.loc 1 850 11 view .LVU304
 1401 0024 98ED008A 		vldr.32	s16, [r8]	@ lastTime, lastTime
 1402              	.LBB230:
 1403              	.LBB220:
 1404              	@ src/main.c:239:     pd->system->getButtonState(&current, &pushed, &released);
 239:src/main.c    ****     if (timer.state == TIMER_READY) {
 1405              		.loc 1 239 5 view .LVU305
 1406 0028 0AAA     		add	r2, sp, #40	@ tmp1645,,
 1407              	.LVL69:
 239:src/main.c    ****     if (timer.state == TIMER_READY) {
 1408              		.loc 1 239 5 view .LVU306
 1409              	.LBE220:
 1410              	.LBE230:
 1411              		.loc 1 850 5 is_stmt 1 view .LVU307
 1412              	.LBB231:
 1413              	.LBB221:
 1414              	@ src/main.c:239:     pd->system->getButtonState(&current, &pushed, &released);
 239:src/main.c    ****     if (timer.state == TIMER_READY) {
 1415              		.loc 1 239 15 is_stmt 0 view .LVU308
 1416 002a 1B68     		ldr	r3, [r3]	@ pd.62_92->system, pd.62_92->system
 1417              	@ src/main.c:239:     pd->system->getButtonState(&current, &pushed, &released);
 239:src/main.c    ****     if (timer.state == TIMER_READY) {
 1418              		.loc 1 239 5 view .LVU309
 1419 002c 09A9     		add	r1, sp, #36	@,,
 1420 002e 0DF12300 		add	r0, sp, #35	@,,
 1421              	.LBE221:
 1422              	.LBE231:
 1423              	@ src/main.c:850:     float dt = now - lastTime;
 1424              		.loc 1 850 11 view .LVU310
 1425 0032 30EE488A 		vsub.f32	s16, s0, s16	@ dt, now, lastTime
 1426              	.LVL70:
 851:src/main.c    ****     lastTime = now;
 1427              		.loc 1 851 5 is_stmt 1 view .LVU311
 1428              	.LBB232:
ARM GAS  /var/folders/ym/cl7zt4994p5_9n084fng6gl80000gn/T//ccxpWZpc.s 			page 44


 1429              	.LBB222:
 1430              	@ src/main.c:239:     pd->system->getButtonState(&current, &pushed, &released);
 239:src/main.c    ****     if (timer.state == TIMER_READY) {
 1431              		.loc 1 239 5 is_stmt 0 view .LVU312
 1432 0036 5B6A     		ldr	r3, [r3, #36]	@ _93->getButtonState, _93->getButtonState
 1433              	.LBE222:
 1434              	.LBE232:
 1435              	@ src/main.c:851:     lastTime = now;
 1436              		.loc 1 851 14 view .LVU313
 1437 0038 88ED000A 		vstr.32	s0, [r8]	@ now, lastTime
 852:src/main.c    **** 
 853:src/main.c    ****     HandleInput();
 1438              		.loc 1 853 5 is_stmt 1 view .LVU314
 1439              	.LBB233:
 1440              	.LBI191:
 233:src/main.c    **** {
 1441              		.loc 1 233 13 view .LVU315
 1442              	.LBB223:
 235:src/main.c    ****     PDButtons pushed;
 1443              		.loc 1 235 5 view .LVU316
 236:src/main.c    ****     PDButtons released;
 1444              		.loc 1 236 5 view .LVU317
 237:src/main.c    **** 
 1445              		.loc 1 237 5 view .LVU318
 239:src/main.c    ****     if (timer.state == TIMER_READY) {
 1446              		.loc 1 239 5 view .LVU319
 1447 003c 9847     		blx	r3		@ _93->getButtonState
 1448              	.LVL71:
 240:src/main.c    ****         // õĖŖ/õĖŗµ¢╣ÕÉæķö«Õ£©ķóäĶ«ŠµŚČķĢ┐õ╣ŗķŚ┤ÕłćµŹó’╝łµŚĀńÄ»ń╗Ģ’╝ē
 1449              		.loc 1 240 5 view .LVU320
 1450              	@ src/main.c:240:     if (timer.state == TIMER_READY) {
 240:src/main.c    ****         // õĖŖ/õĖŗµ¢╣ÕÉæķö«Õ£©ķóäĶ«ŠµŚČķĢ┐õ╣ŗķŚ┤ÕłćµŹó’╝łµŚĀńÄ»ń╗Ģ’╝ē
 1451              		.loc 1 240 14 is_stmt 0 view .LVU321
 1452 003e 9BF80830 		ldrb	r3, [fp, #8]	@ zero_extendqisi2	@ _95, timer.state
 1453              	@ src/main.c:240:     if (timer.state == TIMER_READY) {
 240:src/main.c    ****         // õĖŖ/õĖŗµ¢╣ÕÉæķö«Õ£©ķóäĶ«ŠµŚČķĢ┐õ╣ŗķŚ┤ÕłćµŹó’╝łµŚĀńÄ»ń╗Ģ’╝ē
 1454              		.loc 1 240 8 view .LVU322
 1455 0042 002B     		cmp	r3, #0	@ _95
 1456 0044 34D1     		bne	.L55	@
 242:src/main.c    ****             // µēŠÕł░ÕĮōÕēŹ time Õ»╣Õ║öµł¢µ£ĆµÄźĶ┐æńÜäķóäĶ«ŠõĖŗµĀć
 1457              		.loc 1 242 9 is_stmt 1 view .LVU323
 1458              	@ src/main.c:242:         if (pushed & (kButtonUp | kButtonDown)) {
 242:src/main.c    ****             // µēŠÕł░ÕĮōÕēŹ time Õ»╣Õ║öµł¢µ£ĆµÄźĶ┐æńÜäķóäĶ«ŠõĖŗµĀć
 1459              		.loc 1 242 20 is_stmt 0 view .LVU324
 1460 0046 9DF82440 		ldrb	r4, [sp, #36]	@ zero_extendqisi2	@ pushed.63_96, pushed
 1461              	@ src/main.c:242:         if (pushed & (kButtonUp | kButtonDown)) {
 242:src/main.c    ****             // µēŠÕł░ÕĮōÕēŹ time Õ»╣Õ║öµł¢µ£ĆµÄźĶ┐æńÜäķóäĶ«ŠõĖŗµĀć
 1462              		.loc 1 242 12 view .LVU325
 1463 004a 14F00C0F 		tst	r4, #12	@ pushed.63_96,
 1464 004e 78D0     		beq	.L345		@,
 1465              	.LBB193:
 1466              	.LBB194:
 1467              	@ src/main.c:246:                 if (timePresets[i] <= time) idx = i;
 246:src/main.c    ****             }
 1468              		.loc 1 246 36 view .LVU326
 1469 0050 654A     		ldr	r2, .L390	@ tmp1513,
 1470 0052 0121     		movs	r1, #1	@ pretmp_948,
ARM GAS  /var/folders/ym/cl7zt4994p5_9n084fng6gl80000gn/T//ccxpWZpc.s 			page 45


 1471 0054 6548     		ldr	r0, .L390+4	@ ivtmp.377,
 1472 0056 1546     		mov	r5, r2	@ tmp1513, tmp1513
 1473 0058 0392     		str	r2, [sp, #12]	@ tmp1513, %sfp
 1474              	@ src/main.c:245:             for (int i = 0; i < PRESET_COUNT; i++) {
 245:src/main.c    ****                 if (timePresets[i] <= time) idx = i;
 1475              		.loc 1 245 22 view .LVU327
 1476 005a 1A46     		mov	r2, r3	@ i, idx
 1477              	@ src/main.c:246:                 if (timePresets[i] <= time) idx = i;
 246:src/main.c    ****             }
 1478              		.loc 1 246 36 view .LVU328
 1479 005c 2D68     		ldr	r5, [r5]	@ time.64_100, time
 1480 005e 01E0     		b	.L59		@
 1481              	.LVL72:
 1482              	.L346:
 246:src/main.c    ****             }
 1483              		.loc 1 246 36 view .LVU329
 1484 0060 50F8041B 		ldr	r1, [r0], #4	@ pretmp_948, MEM[base: _152, offset: 0B]
 1485              	.LVL73:
 1486              	.L59:
 246:src/main.c    ****             }
 1487              		.loc 1 246 17 is_stmt 1 view .LVU330
 1488              	@ src/main.c:246:                 if (timePresets[i] <= time) idx = i;
 246:src/main.c    ****             }
 1489              		.loc 1 246 20 is_stmt 0 view .LVU331
 1490 0064 8D42     		cmp	r5, r1	@ time.64_100, pretmp_948
 1491 0066 A8BF     		it	ge		@
 1492 0068 1346     		movge	r3, r2	@, idx, i
 1493              	.LVL74:
 245:src/main.c    ****                 if (timePresets[i] <= time) idx = i;
 1494              		.loc 1 245 47 is_stmt 1 view .LVU332
 1495              	@ src/main.c:245:             for (int i = 0; i < PRESET_COUNT; i++) {
 245:src/main.c    ****                 if (timePresets[i] <= time) idx = i;
 1496              		.loc 1 245 48 is_stmt 0 view .LVU333
 1497 006a 0132     		adds	r2, r2, #1	@ i, i,
 1498              	.LVL75:
 245:src/main.c    ****                 if (timePresets[i] <= time) idx = i;
 1499              		.loc 1 245 29 is_stmt 1 view .LVU334
 1500              	@ src/main.c:245:             for (int i = 0; i < PRESET_COUNT; i++) {
 245:src/main.c    ****                 if (timePresets[i] <= time) idx = i;
 1501              		.loc 1 245 13 is_stmt 0 view .LVU335
 1502 006c 082A     		cmp	r2, #8	@ i,
 1503 006e F7D1     		bne	.L346		@,
 1504              	.LBE194:
 248:src/main.c    ****                 if (idx < PRESET_COUNT - 1) idx++;
 1505              		.loc 1 248 13 is_stmt 1 view .LVU336
 1506              	@ src/main.c:248:             if (pushed & kButtonUp) {
 248:src/main.c    ****                 if (idx < PRESET_COUNT - 1) idx++;
 1507              		.loc 1 248 16 is_stmt 0 view .LVU337
 1508 0070 6407     		lsls	r4, r4, #29	@, pushed.63_96,
 1509 0072 00F1B886 		bmi	.L347		@,
 251:src/main.c    ****             }
 1510              		.loc 1 251 17 is_stmt 1 view .LVU338
 1511              	@ src/main.c:251:                 if (idx > 0) idx--;
 251:src/main.c    ****             }
 1512              		.loc 1 251 20 is_stmt 0 view .LVU339
 1513 0076 002B     		cmp	r3, #0	@ idx
 1514 0078 01F0A580 		beq	.L226	@
ARM GAS  /var/folders/ym/cl7zt4994p5_9n084fng6gl80000gn/T//ccxpWZpc.s 			page 46


 251:src/main.c    ****             }
 1515              		.loc 1 251 30 is_stmt 1 view .LVU340
 1516              	.LVL76:
 251:src/main.c    ****             }
 1517              		.loc 1 251 30 is_stmt 0 view .LVU341
 1518 007c 013B     		subs	r3, r3, #1	@ tmp701, idx,
 1519              	.LVL77:
 1520              	.L340:
 251:src/main.c    ****             }
 1521              		.loc 1 251 30 view .LVU342
 1522 007e 5C4A     		ldr	r2, .L390+8	@ tmp694,
 1523              	.LVL78:
 251:src/main.c    ****             }
 1524              		.loc 1 251 30 view .LVU343
 1525 0080 52F82320 		ldr	r2, [r2, r3, lsl #2]	@ pretmp_951, timePresets
 1526 0084 C2EB0213 		rsb	r3, r2, r2, lsl #4	@ tmp698, pretmp_951, pretmp_951,
 1527 0088 9B00     		lsls	r3, r3, #2	@ tmp699, tmp698,
 1528 008a 07EE903A 		vmov	s15, r3	@ int	@ tmp699, tmp699
 1529 008e F8EEE77A 		vcvt.f32.s32	s15, s15	@ _959, tmp699
 1530              	.L62:
 253:src/main.c    ****             Timer_Init(&timer, time * 60);
 1531              		.loc 1 253 13 is_stmt 1 view .LVU344
 1532              	@ src/main.c:253:             time = timePresets[idx];
 253:src/main.c    ****             Timer_Init(&timer, time * 60);
 1533              		.loc 1 253 18 is_stmt 0 view .LVU345
 1534 0092 039B     		ldr	r3, [sp, #12]	@ tmp1513, %sfp
 1535              	.LBB195:
 1536              	.LBB196:
 1537              	@ src/main.c:163: 	t->state = TIMER_READY;
 163:src/main.c    **** }
 1538              		.loc 1 163 11 view .LVU346
 1539 0094 0021     		movs	r1, #0	@ tmp710,
 1540              	.LBE196:
 1541              	.LBE195:
 1542              	@ src/main.c:255:             crankOffset = 0.0f;
 255:src/main.c    ****             SaveSettings();
 1543              		.loc 1 255 25 view .LVU347
 1544 0096 574C     		ldr	r4, .L390+12	@ tmp1507,
 1545              	@ src/main.c:253:             time = timePresets[idx];
 253:src/main.c    ****             Timer_Init(&timer, time * 60);
 1546              		.loc 1 253 18 view .LVU348
 1547 0098 1A60     		str	r2, [r3]	@ pretmp_951, time
 254:src/main.c    ****             crankOffset = 0.0f;
 1548              		.loc 1 254 13 is_stmt 1 view .LVU349
 1549              	.LVL79:
 1550              	.LBB199:
 1551              	.LBI195:
 155:src/main.c    **** {
 1552              		.loc 1 155 13 view .LVU350
 1553              	.LBB197:
 161:src/main.c    **** 	t->secondsLeft = seconds;
 1554              		.loc 1 161 2 view .LVU351
 1555              	.LBE197:
 1556              	.LBE199:
 1557              	@ src/main.c:255:             crankOffset = 0.0f;
 255:src/main.c    ****             SaveSettings();
 1558              		.loc 1 255 25 is_stmt 0 view .LVU352
ARM GAS  /var/folders/ym/cl7zt4994p5_9n084fng6gl80000gn/T//ccxpWZpc.s 			page 47


 1559 009a 0023     		movs	r3, #0	@ tmp713,
 1560              	.LBB200:
 1561              	.LBB198:
 1562              	@ src/main.c:161: 	t->totalSeconds = seconds;
 161:src/main.c    **** 	t->secondsLeft = seconds;
 1563              		.loc 1 161 18 view .LVU353
 1564 009c CBED007A 		vstr.32	s15, [fp]	@ _959, timer.totalSeconds
 162:src/main.c    **** 	t->state = TIMER_READY;
 1565              		.loc 1 162 2 is_stmt 1 view .LVU354
 1566              	@ src/main.c:162: 	t->secondsLeft = seconds;
 162:src/main.c    **** 	t->state = TIMER_READY;
 1567              		.loc 1 162 17 is_stmt 0 view .LVU355
 1568 00a0 CBED017A 		vstr.32	s15, [fp, #4]	@ _959, timer.secondsLeft
 163:src/main.c    **** }
 1569              		.loc 1 163 2 is_stmt 1 view .LVU356
 1570              	@ src/main.c:163: 	t->state = TIMER_READY;
 163:src/main.c    **** }
 1571              		.loc 1 163 11 is_stmt 0 view .LVU357
 1572 00a4 8BF80810 		strb	r1, [fp, #8]	@ tmp710, timer.state
 1573              	.LVL80:
 163:src/main.c    **** }
 1574              		.loc 1 163 11 view .LVU358
 1575              	.LBE198:
 1576              	.LBE200:
 255:src/main.c    ****             SaveSettings();
 1577              		.loc 1 255 13 is_stmt 1 view .LVU359
 1578              	@ src/main.c:255:             crankOffset = 0.0f;
 255:src/main.c    ****             SaveSettings();
 1579              		.loc 1 255 25 is_stmt 0 view .LVU360
 1580 00a8 2360     		str	r3, [r4]	@ float	@ tmp713, crankOffset
 256:src/main.c    ****         }
 1581              		.loc 1 256 13 is_stmt 1 view .LVU361
 1582 00aa FFF7FEFF 		bl	SaveSettings		@
 1583              	.LVL81:
 1584 00ae 49E0     		b	.L56		@
 1585              	.L55:
 256:src/main.c    ****         }
 1586              		.loc 1 256 13 is_stmt 0 view .LVU362
 1587              	.LBE193:
 279:src/main.c    ****         // ń╗ōµØ¤ÕÉÄĶĮ¼ÕŖ©µø▓µ¤äÕöżķåÆ’╝īÕø×Õł░ READY ńŖČµĆü’╝łõ┐ØńĢÖõĖŖµ¼ĪńÜäµŚČķĢ┐’╝ē
 1588              		.loc 1 279 12 is_stmt 1 view .LVU363
 1589              	@ src/main.c:279:     } else if (timer.state == TIMER_FINISHED) {
 279:src/main.c    ****         // ń╗ōµØ¤ÕÉÄĶĮ¼ÕŖ©µø▓µ¤äÕöżķåÆ’╝īÕø×Õł░ READY ńŖČµĆü’╝łõ┐ØńĢÖõĖŖµ¼ĪńÜäµŚČķĢ┐’╝ē
 1590              		.loc 1 279 15 is_stmt 0 view .LVU364
 1591 00b0 032B     		cmp	r3, #3	@ _95,
 1592 00b2 00F05A86 		beq	.L348		@,
 292:src/main.c    ****         if (timer.state == TIMER_FINISHED) {
 1593              		.loc 1 292 5 is_stmt 1 view .LVU365
 1594              	@ src/main.c:292:     if (pushed & kButtonA) {
 292:src/main.c    ****         if (timer.state == TIMER_FINISHED) {
 1595              		.loc 1 292 16 is_stmt 0 view .LVU366
 1596 00b6 9DF82420 		ldrb	r2, [sp, #36]	@ zero_extendqisi2	@ pushed.80_416, pushed
 1597              	@ src/main.c:292:     if (pushed & kButtonA) {
 292:src/main.c    ****         if (timer.state == TIMER_FINISHED) {
 1598              		.loc 1 292 8 view .LVU367
 1599 00ba 9106     		lsls	r1, r2, #26	@, pushed.80_416,
 1600 00bc 00F1B480 		bmi	.L78		@,
ARM GAS  /var/folders/ym/cl7zt4994p5_9n084fng6gl80000gn/T//ccxpWZpc.s 			page 48


 1601              	.L77:
 302:src/main.c    ****         if (timer.state == TIMER_PAUSED || timer.state == TIMER_FINISHED) {
 1602              		.loc 1 302 5 is_stmt 1 view .LVU368
 1603              	@ src/main.c:302:     if (pushed & kButtonB) {
 302:src/main.c    ****         if (timer.state == TIMER_PAUSED || timer.state == TIMER_FINISHED) {
 1604              		.loc 1 302 8 is_stmt 0 view .LVU369
 1605 00c0 D706     		lsls	r7, r2, #27	@, pushed.80_416,
 1606 00c2 40F1FA81 		bpl	.L84		@,
 303:src/main.c    ****             Timer_Reset(&timer);
 1607              		.loc 1 303 9 is_stmt 1 view .LVU370
 1608              	@ src/main.c:303:         if (timer.state == TIMER_PAUSED || timer.state == TIMER_FINISHED) {
 303:src/main.c    ****             Timer_Reset(&timer);
 1609              		.loc 1 303 12 is_stmt 0 view .LVU371
 1610 00c6 9A1E     		subs	r2, r3, #2	@ tmp788, _95,
 1611 00c8 012A     		cmp	r2, #1	@ tmp788,
 1612 00ca 00F2F681 		bhi	.L84		@,
 1613              	.L81:
 304:src/main.c    ****         }
 1614              		.loc 1 304 13 is_stmt 1 view .LVU372
 1615              	.LVL82:
 1616              	.LBB201:
 1617              	.LBI201:
 176:src/main.c    **** {
 1618              		.loc 1 176 13 view .LVU373
 1619              	.LBB202:
 181:src/main.c    **** 	t->state = TIMER_READY;
 1620              		.loc 1 181 2 view .LVU374
 182:src/main.c    **** }
 1621              		.loc 1 182 2 view .LVU375
 1622              	@ src/main.c:182: 	t->state = TIMER_READY;
 182:src/main.c    **** }
 1623              		.loc 1 182 11 is_stmt 0 view .LVU376
 1624 00ce 0023     		movs	r3, #0	@ tmp790,
 1625 00d0 8BF80830 		strb	r3, [fp, #8]	@ tmp790, timer.state
 1626              	.LVL83:
 182:src/main.c    **** }
 1627              		.loc 1 182 11 view .LVU377
 1628              	.LBE202:
 1629              	.LBE201:
 1630              	.LBE223:
 1631              	.LBE233:
 854:src/main.c    ****     Timer_Update(&timer, dt);
 1632              		.loc 1 854 5 is_stmt 1 view .LVU378
 1633              	.LBB234:
 1634              	.LBI234:
 186:src/main.c    **** {
 1635              		.loc 1 186 13 view .LVU379
 1636              	.LBB235:
 200:src/main.c    **** 		t->secondsLeft -= dt;
 1637              		.loc 1 200 2 view .LVU380
 1638              	.L79:
 209:src/main.c    ****     }
 1639              		.loc 1 209 9 view .LVU381
 1640              	.LBE235:
 1641              	.LBE234:
 1642              	@ src/main.c:856:     if (barStyle == BAR_SNOW) {
 855:src/main.c    **** 
ARM GAS  /var/folders/ym/cl7zt4994p5_9n084fng6gl80000gn/T//ccxpWZpc.s 			page 49


 856:src/main.c    ****     if (barStyle == BAR_SNOW) {
 1643              		.loc 1 856 18 is_stmt 0 view .LVU382
 1644 00d4 484B     		ldr	r3, .L390+16	@ tmp1515,
 1645              	.LBB242:
 1646              	.LBB236:
 1647              	@ src/main.c:209:         t->secondsLeft = t->totalSeconds;
 209:src/main.c    ****     }
 1648              		.loc 1 209 24 view .LVU383
 1649 00d6 DBF80020 		ldr	r2, [fp]	@ float	@ timer.totalSeconds, timer.totalSeconds
 1650              	.LBE236:
 1651              	.LBE242:
 1652              	@ src/main.c:856:     if (barStyle == BAR_SNOW) {
 1653              		.loc 1 856 18 view .LVU384
 1654 00da 0293     		str	r3, [sp, #8]	@ tmp1515, %sfp
 1655              	@ src/main.c:856:     if (barStyle == BAR_SNOW) {
 1656              		.loc 1 856 8 view .LVU385
 1657 00dc 1B68     		ldr	r3, [r3]	@ barStyle, barStyle
 1658              	.LBB243:
 1659              	.LBB237:
 1660              	@ src/main.c:209:         t->secondsLeft = t->totalSeconds;
 209:src/main.c    ****     }
 1661              		.loc 1 209 24 view .LVU386
 1662 00de CBF80420 		str	r2, [fp, #4]	@ float	@ timer.totalSeconds, timer.secondsLeft
 1663              	.LBE237:
 1664              	.LBE243:
 1665              		.loc 1 856 5 is_stmt 1 view .LVU387
 1666              	@ src/main.c:856:     if (barStyle == BAR_SNOW) {
 1667              		.loc 1 856 8 is_stmt 0 view .LVU388
 1668 00e2 032B     		cmp	r3, #3	@ barStyle,
 1669 00e4 00F0B585 		beq	.L223		@,
 857:src/main.c    ****         UpdateSnow(dt);
 858:src/main.c    ****     }
 859:src/main.c    **** 
 860:src/main.c    ****     // µÜéÕü£ķŚ¬ńāüĶ«ĪµŚČ’╝łõ╗ģÕ£©µÜéÕü£µŚČµÄ©Ķ┐ø’╝īÕģČõĮÖńŖČµĆüÕĮÆķøČ’╝ē
 861:src/main.c    ****     if (timer.state == TIMER_PAUSED) {
 862:src/main.c    ****         pauseBlink += dt;
 863:src/main.c    ****         if (pauseBlink >= PAUSE_BLINK_PERIOD) pauseBlink -= PAUSE_BLINK_PERIOD;
 864:src/main.c    ****     } else {
 865:src/main.c    ****         pauseBlink = 0.0f;
 1670              		.loc 1 865 9 is_stmt 1 view .LVU389
 1671              	@ src/main.c:865:         pauseBlink = 0.0f;
 1672              		.loc 1 865 20 is_stmt 0 view .LVU390
 1673 00e8 444B     		ldr	r3, .L390+20	@ tmp1508,
 1674              	@ src/main.c:873:     if (prevState == TIMER_FINISHED && timer.state != TIMER_FINISHED) {
 866:src/main.c    ****     }
 867:src/main.c    **** 
 868:src/main.c    ****     // Ķ┐øÕģź FINISHED ńÜäń×¼ķŚ┤’╝ÜĶ¦”ÕÅæń╗ōµØ¤µÅÉķåÆ
 869:src/main.c    ****     if (timer.state == TIMER_FINISHED && prevState != TIMER_FINISHED) {
 870:src/main.c    ****         TriggerFinish();
 871:src/main.c    ****     }
 872:src/main.c    ****     // ń”╗Õ╝Ć FINISHED’╝łõŠŗÕ”éµø▓µ¤äÕöżķåÆ’╝ē’╝Üń½ŗÕŹ│Õü£µŁóķŚ¬Õ▒Å
 873:src/main.c    ****     if (prevState == TIMER_FINISHED && timer.state != TIMER_FINISHED) {
 1675              		.loc 1 873 19 view .LVU391
 1676 00ea 454D     		ldr	r5, .L390+24	@ tmp1509,
 1677              	@ src/main.c:865:         pauseBlink = 0.0f;
 865:src/main.c    ****     }
 1678              		.loc 1 865 20 view .LVU392
ARM GAS  /var/folders/ym/cl7zt4994p5_9n084fng6gl80000gn/T//ccxpWZpc.s 			page 50


 1679 00ec 1A46     		mov	r2, r3	@ tmp1508, tmp1508
 1680 00ee 0493     		str	r3, [sp, #16]	@ tmp1508, %sfp
 1681 00f0 0023     		movs	r3, #0	@ tmp1492,
 1682 00f2 1360     		str	r3, [r2]	@ float	@ tmp1492, pauseBlink
 869:src/main.c    ****         TriggerFinish();
 1683              		.loc 1 869 5 is_stmt 1 view .LVU393
 1684              		.loc 1 873 5 view .LVU394
 1685              	@ src/main.c:873:     if (prevState == TIMER_FINISHED && timer.state != TIMER_FINISHED) {
 1686              		.loc 1 873 8 is_stmt 0 view .LVU395
 1687 00f4 2B78     		ldrb	r3, [r5]	@ zero_extendqisi2	@ prevState, prevState
 1688 00f6 032B     		cmp	r3, #3	@ prevState,
 1689 00f8 40F0CB80 		bne	.L335		@,
 1690              	.L353:
 1691 00fc 414C     		ldr	r4, .L390+28	@ tmp1510,
 1692 00fe 424E     		ldr	r6, .L390+32	@ tmp1494,
 1693              	.L105:
 874:src/main.c    ****         flashTimer = 0.0f;
 1694              		.loc 1 874 9 is_stmt 1 view .LVU396
 1695              	@ src/main.c:875:         pd->display->setInverted(darkMode);
 875:src/main.c    ****         pd->display->setInverted(darkMode);
 1696              		.loc 1 875 11 is_stmt 0 view .LVU397
 1697 0100 D9F80030 		ldr	r3, [r9]	@ pd, pd
 1698              	@ src/main.c:874:         flashTimer = 0.0f;
 874:src/main.c    ****         flashTimer = 0.0f;
 1699              		.loc 1 874 20 view .LVU398
 1700 0104 0022     		movs	r2, #0	@ tmp879,
 1701              	@ src/main.c:875:         pd->display->setInverted(darkMode);
 1702              		.loc 1 875 9 view .LVU399
 1703 0106 4149     		ldr	r1, .L390+36	@ tmp880,
 1704              	@ src/main.c:875:         pd->display->setInverted(darkMode);
 1705              		.loc 1 875 20 view .LVU400
 1706 0108 1B69     		ldr	r3, [r3, #16]	@ pd.41_13->display, pd.41_13->display
 1707              	@ src/main.c:875:         pd->display->setInverted(darkMode);
 1708              		.loc 1 875 9 view .LVU401
 1709 010a 0868     		ldr	r0, [r1]	@, darkMode
 1710 010c DB68     		ldr	r3, [r3, #12]	@ _14->setInverted, _14->setInverted
 1711              	@ src/main.c:874:         flashTimer = 0.0f;
 874:src/main.c    ****         flashTimer = 0.0f;
 1712              		.loc 1 874 20 view .LVU402
 1713 010e 2260     		str	r2, [r4]	@ float	@ tmp879, flashTimer
 1714              		.loc 1 875 9 is_stmt 1 view .LVU403
 1715 0110 9847     		blx	r3		@ _14->setInverted
 1716              	.LVL84:
 1717 0112 3268     		ldr	r2, [r6]	@ prephitmp_776, chimeStep
 1718 0114 9BF80830 		ldrb	r3, [fp, #8]	@ zero_extendqisi2	@ prephitmp_778, timer.state
 1719 0118 511E     		subs	r1, r2, #1	@ prephitmp_767, prephitmp_776,
 876:src/main.c    ****     }
 877:src/main.c    ****     prevState = timer.state;
 1720              		.loc 1 877 5 view .LVU404
 1721              	@ src/main.c:877:     prevState = timer.state;
 1722              		.loc 1 877 15 is_stmt 0 view .LVU405
 1723 011a 2B70     		strb	r3, [r5]	@ prephitmp_778, prevState
 878:src/main.c    **** 
 879:src/main.c    ****     // µÅÉńż║ķ¤│ķ¤│Õ║Å’╝łõĖēķ¤│õĖŖĶĪī’╝ē
 880:src/main.c    ****     if (chimeStep > 0 && chimeStep < 3) {
 1724              		.loc 1 880 5 is_stmt 1 view .LVU406
 1725              	@ src/main.c:880:     if (chimeStep > 0 && chimeStep < 3) {
ARM GAS  /var/folders/ym/cl7zt4994p5_9n084fng6gl80000gn/T//ccxpWZpc.s 			page 51


 1726              		.loc 1 880 8 is_stmt 0 view .LVU407
 1727 011c 0129     		cmp	r1, #1	@ prephitmp_767,
 1728 011e 00F2C280 		bhi	.L107		@,
 1729              	.L354:
 1730 0122 3B4F     		ldr	r7, .L390+40	@ tmp1511,
 1731              	.L104:
 881:src/main.c    ****         chimeTimer += dt;
 1732              		.loc 1 881 9 is_stmt 1 view .LVU408
 1733              	@ src/main.c:881:         chimeTimer += dt;
 1734              		.loc 1 881 20 is_stmt 0 view .LVU409
 1735 0124 D7ED007A 		vldr.32	s15, [r7]	@ chimeTimer, chimeTimer
 1736              	@ src/main.c:882:         if (chimeTimer >= CHIME_GAP) {
 882:src/main.c    ****         if (chimeTimer >= CHIME_GAP) {
 1737              		.loc 1 882 12 view .LVU410
 1738 0128 9FED3A7A 		vldr.32	s14, .L390+44	@ tmp892,
 1739              	@ src/main.c:881:         chimeTimer += dt;
 881:src/main.c    ****         chimeTimer += dt;
 1740              		.loc 1 881 20 view .LVU411
 1741 012c 78EE277A 		vadd.f32	s15, s16, s15	@ _22, dt, chimeTimer
 1742              		.loc 1 882 9 is_stmt 1 view .LVU412
 1743              	@ src/main.c:882:         if (chimeTimer >= CHIME_GAP) {
 1744              		.loc 1 882 12 is_stmt 0 view .LVU413
 1745 0130 F4EEC77A 		vcmpe.f32	s15, s14	@ _22, tmp892
 1746 0134 F1EE10FA 		vmrs	APSR_nzcv, FPSCR
 1747 0138 80F2E784 		bge	.L108		@,
 1748              	@ src/main.c:881:         chimeTimer += dt;
 881:src/main.c    ****         chimeTimer += dt;
 1749              		.loc 1 881 20 view .LVU414
 1750 013c C7ED007A 		vstr.32	s15, [r7]	@ _22, chimeTimer
 1751 0140 B1E0     		b	.L107		@
 1752              	.L345:
 881:src/main.c    ****         chimeTimer += dt;
 1753              		.loc 1 881 20 view .LVU415
 1754 0142 2C4C     		ldr	r4, .L390+12	@ tmp1507,
 1755              	.L56:
 1756              	.LBB244:
 1757              	.LBB224:
 259:src/main.c    ****         if (fabsf(crankOffset) > 30.0f) {
 1758              		.loc 1 259 9 is_stmt 1 view .LVU416
 1759              	@ src/main.c:259:         crankOffset += pd->system->getCrankChange();
 259:src/main.c    ****         if (fabsf(crankOffset) > 30.0f) {
 1760              		.loc 1 259 26 is_stmt 0 view .LVU417
 1761 0144 D9F80030 		ldr	r3, [r9]	@ pd, pd
 1762              	@ src/main.c:259:         crankOffset += pd->system->getCrankChange();
 259:src/main.c    ****         if (fabsf(crankOffset) > 30.0f) {
 1763              		.loc 1 259 34 view .LVU418
 1764 0148 1B68     		ldr	r3, [r3]	@ pd.67_110->system, pd.67_110->system
 1765              	@ src/main.c:259:         crankOffset += pd->system->getCrankChange();
 259:src/main.c    ****         if (fabsf(crankOffset) > 30.0f) {
 1766              		.loc 1 259 24 view .LVU419
 1767 014a 1B6B     		ldr	r3, [r3, #48]	@ _111->getCrankChange, _111->getCrankChange
 1768 014c 9847     		blx	r3		@ _111->getCrankChange
 1769              	.LVL85:
 1770              	@ src/main.c:259:         crankOffset += pd->system->getCrankChange();
 259:src/main.c    ****         if (fabsf(crankOffset) > 30.0f) {
 1771              		.loc 1 259 21 view .LVU420
 1772 014e 94ED007A 		vldr.32	s14, [r4]	@ crankOffset, crankOffset
ARM GAS  /var/folders/ym/cl7zt4994p5_9n084fng6gl80000gn/T//ccxpWZpc.s 			page 52


 1773              	@ src/main.c:260:         if (fabsf(crankOffset) > 30.0f) {
 260:src/main.c    ****             if (crankOffset > 0) {
 1774              		.loc 1 260 12 view .LVU421
 1775 0152 F3EE0E7A 		vmov.f32	s15, #3.0e+1	@ tmp722,
 1776              	@ src/main.c:259:         crankOffset += pd->system->getCrankChange();
 259:src/main.c    ****         if (fabsf(crankOffset) > 30.0f) {
 1777              		.loc 1 259 21 view .LVU422
 1778 0156 30EE070A 		vadd.f32	s0, s0, s14	@ _115, tmp1559, crankOffset
 1779              	@ src/main.c:260:         if (fabsf(crankOffset) > 30.0f) {
 260:src/main.c    ****             if (crankOffset > 0) {
 1780              		.loc 1 260 13 view .LVU423
 1781 015a B0EEC07A 		vabs.f32	s14, s0	@ tmp721, _115
 1782              	@ src/main.c:259:         crankOffset += pd->system->getCrankChange();
 259:src/main.c    ****         if (fabsf(crankOffset) > 30.0f) {
 1783              		.loc 1 259 21 view .LVU424
 1784 015e 84ED000A 		vstr.32	s0, [r4]	@ _115, crankOffset
 260:src/main.c    ****             if (crankOffset > 0) {
 1785              		.loc 1 260 9 is_stmt 1 view .LVU425
 1786              	@ src/main.c:260:         if (fabsf(crankOffset) > 30.0f) {
 260:src/main.c    ****             if (crankOffset > 0) {
 1787              		.loc 1 260 12 is_stmt 0 view .LVU426
 1788 0162 B4EEE77A 		vcmpe.f32	s14, s15	@ tmp721, tmp722
 1789 0166 F1EE10FA 		vmrs	APSR_nzcv, FPSCR
 1790 016a 2CDD     		ble	.L72		@,
 261:src/main.c    ****                 time++;
 1791              		.loc 1 261 13 is_stmt 1 view .LVU427
 1792              	@ src/main.c:261:             if (crankOffset > 0) {
 261:src/main.c    ****                 time++;
 1793              		.loc 1 261 16 is_stmt 0 view .LVU428
 1794 016c B5EEC00A 		vcmpe.f32	s0, #0	@ _115
 1795              	@ src/main.c:262:                 time++;
 262:src/main.c    ****             } else {
 1796              		.loc 1 262 21 view .LVU429
 1797 0170 1D4B     		ldr	r3, .L390	@ tmp1513,
 1798 0172 0393     		str	r3, [sp, #12]	@ tmp1513, %sfp
 1799              	@ src/main.c:261:             if (crankOffset > 0) {
 261:src/main.c    ****                 time++;
 1800              		.loc 1 261 16 view .LVU430
 1801 0174 F1EE10FA 		vmrs	APSR_nzcv, FPSCR
 1802              	@ src/main.c:262:                 time++;
 262:src/main.c    ****             } else {
 1803              		.loc 1 262 21 view .LVU431
 1804 0178 1B68     		ldr	r3, [r3]	@ time, time
 262:src/main.c    ****             } else {
 1805              		.loc 1 262 17 is_stmt 1 view .LVU432
 1806              	@ src/main.c:262:                 time++;
 262:src/main.c    ****             } else {
 1807              		.loc 1 262 21 is_stmt 0 view .LVU433
 1808 017a CCBF     		ite	gt
 1809 017c 0133     		addgt	r3, r3, #1	@ _118, time,
 264:src/main.c    ****             }
 1810              		.loc 1 264 17 is_stmt 1 view .LVU434
 1811              	@ src/main.c:264:                 time--;
 264:src/main.c    ****             }
 1812              		.loc 1 264 21 is_stmt 0 view .LVU435
 1813 017e 03F1FF33 		addle	r3, r3, #-1	@ _118, time,
 267:src/main.c    ****                 time = 1;
ARM GAS  /var/folders/ym/cl7zt4994p5_9n084fng6gl80000gn/T//ccxpWZpc.s 			page 53


 1814              		.loc 1 267 13 is_stmt 1 view .LVU436
 1815              	@ src/main.c:267:             if (time < 1) {
 267:src/main.c    ****                 time = 1;
 1816              		.loc 1 267 16 is_stmt 0 view .LVU437
 1817 0182 002B     		cmp	r3, #0	@ _118,
 1818 0184 40F33C86 		ble	.L349		@,
 270:src/main.c    ****                 time = 99;
 1819              		.loc 1 270 13 is_stmt 1 view .LVU438
 1820              	@ src/main.c:270:             if (time > 99) {
 270:src/main.c    ****                 time = 99;
 1821              		.loc 1 270 16 is_stmt 0 view .LVU439
 1822 0188 632B     		cmp	r3, #99	@ _118,
 1823 018a 41F35380 		ble	.L350		@,
 271:src/main.c    ****             }
 1824              		.loc 1 271 17 is_stmt 1 view .LVU440
 1825              	@ src/main.c:271:                 time = 99;
 271:src/main.c    ****             }
 1826              		.loc 1 271 22 is_stmt 0 view .LVU441
 1827 018e 6323     		movs	r3, #99	@ tmp736,
 1828 0190 039A     		ldr	r2, [sp, #12]	@ tmp1513, %sfp
 1829 0192 9FED217A 		vldr.32	s14, .L390+48	@ _966,
 1830 0196 1360     		str	r3, [r2]	@ tmp736, time
 1831              	.L69:
 274:src/main.c    **** 
 1832              		.loc 1 274 13 is_stmt 1 view .LVU442
 1833              	.LVL86:
 1834              	.LBB203:
 1835              	.LBI203:
 155:src/main.c    **** {
 1836              		.loc 1 155 13 view .LVU443
 1837              	.LBB204:
 161:src/main.c    **** 	t->secondsLeft = seconds;
 1838              		.loc 1 161 2 view .LVU444
 1839              	.LBE204:
 1840              	.LBE203:
 1841              	@ src/main.c:276:             crankOffset -= 30.0f * (crankOffset > 0 ? 1 : -1);
 276:src/main.c    ****             SaveSettings();
 1842              		.loc 1 276 34 is_stmt 0 view .LVU445
 1843 0198 B5EEC00A 		vcmpe.f32	s0, #0	@ _115
 1844              	.LBB209:
 1845              	.LBB205:
 1846              	@ src/main.c:161: 	t->totalSeconds = seconds;
 161:src/main.c    **** 	t->secondsLeft = seconds;
 1847              		.loc 1 161 18 view .LVU446
 1848 019c 8BED007A 		vstr.32	s14, [fp]	@ _966, timer.totalSeconds
 162:src/main.c    **** 	t->state = TIMER_READY;
 1849              		.loc 1 162 2 is_stmt 1 view .LVU447
 1850              	.LBE205:
 1851              	.LBE209:
 1852              	@ src/main.c:276:             crankOffset -= 30.0f * (crankOffset > 0 ? 1 : -1);
 276:src/main.c    ****             SaveSettings();
 1853              		.loc 1 276 34 is_stmt 0 view .LVU448
 1854 01a0 F3EE0E7A 		vmov.f32	s15, #3.0e+1	@ tmp1520,
 1855              	.LBB210:
 1856              	.LBB206:
 1857              	@ src/main.c:162: 	t->secondsLeft = seconds;
 162:src/main.c    **** 	t->state = TIMER_READY;
ARM GAS  /var/folders/ym/cl7zt4994p5_9n084fng6gl80000gn/T//ccxpWZpc.s 			page 54


 1858              		.loc 1 162 17 view .LVU449
 1859 01a4 8BED017A 		vstr.32	s14, [fp, #4]	@ _966, timer.secondsLeft
 163:src/main.c    **** }
 1860              		.loc 1 163 2 is_stmt 1 view .LVU450
 1861              	.LBE206:
 1862              	.LBE210:
 1863              	@ src/main.c:276:             crankOffset -= 30.0f * (crankOffset > 0 ? 1 : -1);
 276:src/main.c    ****             SaveSettings();
 1864              		.loc 1 276 34 is_stmt 0 view .LVU451
 1865 01a8 BBEE0E7A 		vmov.f32	s14, #-3.0e+1	@ tmp1521,
 1866              	.LBB211:
 1867              	.LBB207:
 1868              	@ src/main.c:163: 	t->state = TIMER_READY;
 163:src/main.c    **** }
 1869              		.loc 1 163 11 view .LVU452
 1870 01ac 0023     		movs	r3, #0	@ tmp740,
 1871              	.LBE207:
 1872              	.LBE211:
 1873              	@ src/main.c:276:             crankOffset -= 30.0f * (crankOffset > 0 ? 1 : -1);
 276:src/main.c    ****             SaveSettings();
 1874              		.loc 1 276 34 view .LVU453
 1875 01ae F1EE10FA 		vmrs	APSR_nzcv, FPSCR
 1876              	.LBB212:
 1877              	.LBB208:
 1878              	@ src/main.c:163: 	t->state = TIMER_READY;
 163:src/main.c    **** }
 1879              		.loc 1 163 11 view .LVU454
 1880 01b2 8BF80830 		strb	r3, [fp, #8]	@ tmp740, timer.state
 1881              	.LVL87:
 163:src/main.c    **** }
 1882              		.loc 1 163 11 view .LVU455
 1883              	.LBE208:
 1884              	.LBE212:
 276:src/main.c    ****             SaveSettings();
 1885              		.loc 1 276 13 is_stmt 1 view .LVU456
 1886              	@ src/main.c:276:             crankOffset -= 30.0f * (crankOffset > 0 ? 1 : -1);
 276:src/main.c    ****             SaveSettings();
 1887              		.loc 1 276 34 is_stmt 0 view .LVU457
 1888 01b6 77FE877A 		vselgt.f32	s15, s15, s14	@, prephitmp_968, tmp1520, tmp1521
 1889              	@ src/main.c:276:             crankOffset -= 30.0f * (crankOffset > 0 ? 1 : -1);
 276:src/main.c    ****             SaveSettings();
 1890              		.loc 1 276 25 view .LVU458
 1891 01ba 30EE670A 		vsub.f32	s0, s0, s15	@ tmp744, _115, prephitmp_968
 1892 01be 84ED000A 		vstr.32	s0, [r4]	@ tmp744, crankOffset
 277:src/main.c    ****         }
 1893              		.loc 1 277 13 is_stmt 1 view .LVU459
 1894 01c2 FFF7FEFF 		bl	SaveSettings		@
 1895              	.LVL88:
 1896              	.L72:
 292:src/main.c    ****         if (timer.state == TIMER_FINISHED) {
 1897              		.loc 1 292 5 view .LVU460
 1898              	@ src/main.c:292:     if (pushed & kButtonA) {
 292:src/main.c    ****         if (timer.state == TIMER_FINISHED) {
 1899              		.loc 1 292 16 is_stmt 0 view .LVU461
 1900 01c6 9DF82420 		ldrb	r2, [sp, #36]	@ zero_extendqisi2	@ pushed.80_416, pushed
 1901              	@ src/main.c:293:         if (timer.state == TIMER_FINISHED) {
 293:src/main.c    ****             timer.state = TIMER_READY;
ARM GAS  /var/folders/ym/cl7zt4994p5_9n084fng6gl80000gn/T//ccxpWZpc.s 			page 55


 1902              		.loc 1 293 18 view .LVU462
 1903 01ca 9BF80830 		ldrb	r3, [fp, #8]	@ zero_extendqisi2	@ _95, timer.state
 1904              	@ src/main.c:292:     if (pushed & kButtonA) {
 292:src/main.c    ****         if (timer.state == TIMER_FINISHED) {
 1905              		.loc 1 292 8 view .LVU463
 1906 01ce 9106     		lsls	r1, r2, #26	@, pushed.80_416,
 1907 01d0 7FF576AF 		bpl	.L77		@,
 293:src/main.c    ****             timer.state = TIMER_READY;
 1908              		.loc 1 293 9 is_stmt 1 view .LVU464
 1909              	@ src/main.c:293:         if (timer.state == TIMER_FINISHED) {
 293:src/main.c    ****             timer.state = TIMER_READY;
 1910              		.loc 1 293 12 is_stmt 0 view .LVU465
 1911 01d4 032B     		cmp	r3, #3	@ _95,
 1912 01d6 27D1     		bne	.L78		@,
 294:src/main.c    ****             crankOffset = 0.0f;
 1913              		.loc 1 294 13 is_stmt 1 view .LVU466
 1914              	@ src/main.c:294:             timer.state = TIMER_READY;
 294:src/main.c    ****             crankOffset = 0.0f;
 1915              		.loc 1 294 25 is_stmt 0 view .LVU467
 1916 01d8 0021     		movs	r1, #0	@ tmp766,
 1917              	@ src/main.c:295:             crankOffset = 0.0f;
 295:src/main.c    ****         } else {
 1918              		.loc 1 295 25 view .LVU468
 1919 01da 064B     		ldr	r3, .L390+12	@ tmp768,
 1920 01dc 0022     		movs	r2, #0	@ tmp769,
 1921              	@ src/main.c:294:             timer.state = TIMER_READY;
 294:src/main.c    ****             crankOffset = 0.0f;
 1922              		.loc 1 294 25 view .LVU469
 1923 01de 8BF80810 		strb	r1, [fp, #8]	@ tmp766, timer.state
 295:src/main.c    ****         } else {
 1924              		.loc 1 295 13 is_stmt 1 view .LVU470
 1925              	@ src/main.c:295:             crankOffset = 0.0f;
 295:src/main.c    ****         } else {
 1926              		.loc 1 295 25 is_stmt 0 view .LVU471
 1927 01e2 1A60     		str	r2, [r3]	@ float	@ tmp769, crankOffset
 302:src/main.c    ****         if (timer.state == TIMER_PAUSED || timer.state == TIMER_FINISHED) {
 1928              		.loc 1 302 5 is_stmt 1 view .LVU472
 1929              	.LBE224:
 1930              	.LBE244:
 854:src/main.c    **** 
 1931              		.loc 1 854 5 view .LVU473
 1932              	.LVL89:
 1933              	.LBB245:
 186:src/main.c    **** {
 1934              		.loc 1 186 13 view .LVU474
 1935              	.LBB238:
 200:src/main.c    **** 		t->secondsLeft -= dt;
 1936              		.loc 1 200 2 view .LVU475
 208:src/main.c    ****         t->secondsLeft = t->totalSeconds;
 1937              		.loc 1 208 5 view .LVU476
 1938 01e4 76E7     		b	.L79		@
 1939              	.L391:
 1940 01e6 00BF     		.align	2
 1941              	.L390:
 1942 01e8 00000000 		.word	.LANCHOR1
 1943 01ec 04000000 		.word	.LANCHOR14+4
 1944 01f0 00000000 		.word	.LANCHOR14
ARM GAS  /var/folders/ym/cl7zt4994p5_9n084fng6gl80000gn/T//ccxpWZpc.s 			page 56


 1945 01f4 00000000 		.word	.LANCHOR15
 1946 01f8 00000000 		.word	.LANCHOR3
 1947 01fc 00000000 		.word	.LANCHOR16
 1948 0200 00000000 		.word	.LANCHOR17
 1949 0204 00000000 		.word	.LANCHOR18
 1950 0208 00000000 		.word	.LANCHOR20
 1951 020c 00000000 		.word	.LANCHOR2
 1952 0210 00000000 		.word	.LANCHOR19
 1953 0214 B81E053E 		.word	1040522936
 1954 0218 00A0B945 		.word	1169793024
 1955 021c 00000000 		.word	.LANCHOR0
 1956 0220 00000000 		.word	.LANCHOR12
 1957 0224 00000000 		.word	.LANCHOR13
 1958              	.LVL90:
 1959              	.L78:
 208:src/main.c    ****         t->secondsLeft = t->totalSeconds;
 1960              		.loc 1 208 5 is_stmt 0 view .LVU477
 1961              	.LBE238:
 1962              	.LBE245:
 1963              	.LBB246:
 1964              	.LBB225:
 297:src/main.c    ****         }
 1965              		.loc 1 297 13 is_stmt 1 view .LVU478
 1966              	.LBB213:
 1967              	.LBI213:
 167:src/main.c    **** {
 1968              		.loc 1 167 13 view .LVU479
 1969              	.LBB214:
 172:src/main.c    **** }
 1970              		.loc 1 172 2 view .LVU480
 1971              	@ src/main.c:172: 	t->state = (t->state == TIMER_RUNNING) ? TIMER_PAUSED : TIMER_RUNNING;
 172:src/main.c    **** }
 1972              		.loc 1 172 56 is_stmt 0 view .LVU481
 1973 0228 012B     		cmp	r3, #1	@ _95,
 1974 022a 00F0E185 		beq	.L351		@,
 1975              	.LVL91:
 1976              	.L74:
 1977              	@ src/main.c:172: 	t->state = (t->state == TIMER_RUNNING) ? TIMER_PAUSED : TIMER_RUNNING;
 172:src/main.c    **** }
 1978              		.loc 1 172 11 view .LVU482
 1979 022e 0123     		movs	r3, #1	@ tmp780,
 1980 0230 8BF80830 		strb	r3, [fp, #8]	@ tmp780, MEM[(TimerState *)&timer + 8B]
 1981              	.LBE214:
 1982              	.LBE213:
 302:src/main.c    ****         if (timer.state == TIMER_PAUSED || timer.state == TIMER_FINISHED) {
 1983              		.loc 1 302 5 is_stmt 1 view .LVU483
 303:src/main.c    ****             Timer_Reset(&timer);
 1984              		.loc 1 303 9 view .LVU484
 1985              	.LBE225:
 1986              	.LBE246:
 854:src/main.c    **** 
 1987              		.loc 1 854 5 view .LVU485
 1988              	.LVL92:
 1989              	.LBB247:
 186:src/main.c    **** {
 1990              		.loc 1 186 13 view .LVU486
 1991              	.LBB239:
ARM GAS  /var/folders/ym/cl7zt4994p5_9n084fng6gl80000gn/T//ccxpWZpc.s 			page 57


 200:src/main.c    **** 		t->secondsLeft -= dt;
 1992              		.loc 1 200 2 view .LVU487
 1993              	.L83:
 201:src/main.c    **** 		if (t->secondsLeft <= 0) {
 1994              		.loc 1 201 3 view .LVU488
 1995              	@ src/main.c:201: 		t->secondsLeft -= dt;
 201:src/main.c    **** 		if (t->secondsLeft <= 0) {
 1996              		.loc 1 201 18 is_stmt 0 view .LVU489
 1997 0234 DBED017A 		vldr.32	s15, [fp, #4]	@ timer.secondsLeft, timer.secondsLeft
 1998              	@ src/main.c:202: 		if (t->secondsLeft <= 0) {
 202:src/main.c    **** 			t->secondsLeft = 0;
 1999              		.loc 1 202 6 view .LVU490
 2000 0238 0023     		movs	r3, #0	@ tmp794,
 2001              	@ src/main.c:201: 		t->secondsLeft -= dt;
 201:src/main.c    **** 		if (t->secondsLeft <= 0) {
 2002              		.loc 1 201 18 view .LVU491
 2003 023a 77EEC87A 		vsub.f32	s15, s15, s16	@ _83, timer.secondsLeft, dt
 202:src/main.c    **** 			t->secondsLeft = 0;
 2004              		.loc 1 202 3 is_stmt 1 view .LVU492
 2005              	@ src/main.c:202: 		if (t->secondsLeft <= 0) {
 202:src/main.c    **** 			t->secondsLeft = 0;
 2006              		.loc 1 202 6 is_stmt 0 view .LVU493
 2007 023e F5EEC07A 		vcmpe.f32	s15, #0	@ _83
 2008 0242 F1EE10FA 		vmrs	APSR_nzcv, FPSCR
 2009 0246 40F2F786 		bls	.L352		@,
 2010              	@ src/main.c:201: 		t->secondsLeft -= dt;
 201:src/main.c    **** 		if (t->secondsLeft <= 0) {
 2011              		.loc 1 201 18 view .LVU494
 2012 024a CBED017A 		vstr.32	s15, [fp, #4]	@ _83, timer.secondsLeft
 2013              	.LVL93:
 2014              	.L82:
 208:src/main.c    ****         t->secondsLeft = t->totalSeconds;
 2015              		.loc 1 208 5 is_stmt 1 view .LVU495
 2016              	.LBE239:
 2017              	.LBE247:
 856:src/main.c    ****         UpdateSnow(dt);
 2018              		.loc 1 856 5 view .LVU496
 2019              	@ src/main.c:856:     if (barStyle == BAR_SNOW) {
 856:src/main.c    ****         UpdateSnow(dt);
 2020              		.loc 1 856 18 is_stmt 0 view .LVU497
 2021 024e A14B     		ldr	r3, .L392	@ tmp1515,
 2022 0250 0293     		str	r3, [sp, #8]	@ tmp1515, %sfp
 2023              	@ src/main.c:856:     if (barStyle == BAR_SNOW) {
 856:src/main.c    ****         UpdateSnow(dt);
 2024              		.loc 1 856 8 view .LVU498
 2025 0252 1B68     		ldr	r3, [r3]	@ barStyle, barStyle
 2026 0254 032B     		cmp	r3, #3	@ barStyle,
 2027 0256 00F0FC84 		beq	.L223		@,
 2028              	.L336:
 2029 025a 9BF80830 		ldrb	r3, [fp, #8]	@ zero_extendqisi2	@ pretmp_932, timer.state
 2030              	.L90:
 861:src/main.c    ****         pauseBlink += dt;
 2031              		.loc 1 861 5 is_stmt 1 view .LVU499
 2032              	@ src/main.c:861:     if (timer.state == TIMER_PAUSED) {
 861:src/main.c    ****         pauseBlink += dt;
 2033              		.loc 1 861 8 is_stmt 0 view .LVU500
 2034 025e 022B     		cmp	r3, #2	@ pretmp_932,
ARM GAS  /var/folders/ym/cl7zt4994p5_9n084fng6gl80000gn/T//ccxpWZpc.s 			page 58


 2035 0260 40F0B881 		bne	.L96		@,
 862:src/main.c    ****         if (pauseBlink >= PAUSE_BLINK_PERIOD) pauseBlink -= PAUSE_BLINK_PERIOD;
 2036              		.loc 1 862 9 is_stmt 1 view .LVU501
 2037              	@ src/main.c:862:         pauseBlink += dt;
 862:src/main.c    ****         if (pauseBlink >= PAUSE_BLINK_PERIOD) pauseBlink -= PAUSE_BLINK_PERIOD;
 2038              		.loc 1 862 20 is_stmt 0 view .LVU502
 2039 0264 9C4B     		ldr	r3, .L392+4	@ tmp1508,
 2040              	@ src/main.c:863:         if (pauseBlink >= PAUSE_BLINK_PERIOD) pauseBlink -= PAUSE_BLINK_PERIOD;
 863:src/main.c    ****     } else {
 2041              		.loc 1 863 12 view .LVU503
 2042 0266 B7EE007A 		vmov.f32	s14, #1.0e+0	@ tmp841,
 2043              	@ src/main.c:862:         pauseBlink += dt;
 862:src/main.c    ****         if (pauseBlink >= PAUSE_BLINK_PERIOD) pauseBlink -= PAUSE_BLINK_PERIOD;
 2044              		.loc 1 862 20 view .LVU504
 2045 026a D3ED007A 		vldr.32	s15, [r3]	@ pauseBlink, pauseBlink
 2046 026e 0493     		str	r3, [sp, #16]	@ tmp1508, %sfp
 2047 0270 78EE277A 		vadd.f32	s15, s16, s15	@ _8, dt, pauseBlink
 863:src/main.c    ****     } else {
 2048              		.loc 1 863 9 is_stmt 1 view .LVU505
 2049              	@ src/main.c:863:         if (pauseBlink >= PAUSE_BLINK_PERIOD) pauseBlink -= PAUSE_BLINK_PERIOD;
 863:src/main.c    ****     } else {
 2050              		.loc 1 863 12 is_stmt 0 view .LVU506
 2051 0274 F4EEC77A 		vcmpe.f32	s15, s14	@ _8, tmp841
 2052 0278 F1EE10FA 		vmrs	APSR_nzcv, FPSCR
 2053 027c C0F2D786 		blt	.L322		@,
 863:src/main.c    ****     } else {
 2054              		.loc 1 863 47 is_stmt 1 discriminator 1 view .LVU507
 2055              	@ src/main.c:863:         if (pauseBlink >= PAUSE_BLINK_PERIOD) pauseBlink -= PAUSE_BLINK_PERIOD;
 863:src/main.c    ****     } else {
 2056              		.loc 1 863 58 is_stmt 0 discriminator 1 view .LVU508
 2057 0280 77EEC77A 		vsub.f32	s15, s15, s14	@ tmp843, _8, tmp841
 2058 0284 C3ED007A 		vstr.32	s15, [r3]	@ tmp843, pauseBlink
 2059              	.L99:
 873:src/main.c    ****         flashTimer = 0.0f;
 2060              		.loc 1 873 5 is_stmt 1 view .LVU509
 2061              	@ src/main.c:873:     if (prevState == TIMER_FINISHED && timer.state != TIMER_FINISHED) {
 873:src/main.c    ****         flashTimer = 0.0f;
 2062              		.loc 1 873 19 is_stmt 0 view .LVU510
 2063 0288 944D     		ldr	r5, .L392+8	@ tmp1509,
 2064              	@ src/main.c:873:     if (prevState == TIMER_FINISHED && timer.state != TIMER_FINISHED) {
 873:src/main.c    ****         flashTimer = 0.0f;
 2065              		.loc 1 873 8 view .LVU511
 2066 028a 2B78     		ldrb	r3, [r5]	@ zero_extendqisi2	@ prevState, prevState
 2067 028c 032B     		cmp	r3, #3	@ prevState,
 2068 028e 3FF435AF 		beq	.L353		@,
 2069              	.L335:
 2070 0292 934E     		ldr	r6, .L392+12	@ tmp1494,
 2071 0294 9BF80830 		ldrb	r3, [fp, #8]	@ zero_extendqisi2	@ prephitmp_778, timer.state
 2072 0298 3268     		ldr	r2, [r6]	@ prephitmp_776, chimeStep
 2073 029a 924C     		ldr	r4, .L392+16	@ tmp1510,
 2074 029c 511E     		subs	r1, r2, #1	@ prephitmp_767, prephitmp_776,
 2075              	.L106:
 877:src/main.c    **** 
 2076              		.loc 1 877 5 is_stmt 1 view .LVU512
 2077              	@ src/main.c:880:     if (chimeStep > 0 && chimeStep < 3) {
 880:src/main.c    ****         chimeTimer += dt;
 2078              		.loc 1 880 8 is_stmt 0 view .LVU513
ARM GAS  /var/folders/ym/cl7zt4994p5_9n084fng6gl80000gn/T//ccxpWZpc.s 			page 59


 2079 029e 0129     		cmp	r1, #1	@ prephitmp_767,
 2080              	@ src/main.c:877:     prevState = timer.state;
 877:src/main.c    **** 
 2081              		.loc 1 877 15 view .LVU514
 2082 02a0 2B70     		strb	r3, [r5]	@ prephitmp_778, prevState
 880:src/main.c    ****         chimeTimer += dt;
 2083              		.loc 1 880 5 is_stmt 1 view .LVU515
 2084              	@ src/main.c:880:     if (chimeStep > 0 && chimeStep < 3) {
 880:src/main.c    ****         chimeTimer += dt;
 2085              		.loc 1 880 8 is_stmt 0 view .LVU516
 2086 02a2 7FF63EAF 		bls	.L354		@,
 2087              	.L107:
 883:src/main.c    ****             chimeTimer -= CHIME_GAP;
 884:src/main.c    ****             if (finishSynth) {
 885:src/main.c    ****                 pd->sound->synth->playNote(finishSynth, chimeNotes[chimeStep], 1.0f, 0.12f, 0);
 886:src/main.c    ****             }
 887:src/main.c    ****             chimeStep++;
 888:src/main.c    ****         }
 889:src/main.c    ****     }
 890:src/main.c    **** 
 891:src/main.c    ****     // ķŚ¬Õ▒Å’╝ÜÕ£©µŁŻÕĖĖ/ÕÅŹńøĖõ╣ŗķŚ┤Õ┐½ķĆ¤ÕłćµŹó
 892:src/main.c    ****     if (flashTimer > 0.0f) {
 2088              		.loc 1 892 5 is_stmt 1 view .LVU517
 2089              	@ src/main.c:892:     if (flashTimer > 0.0f) {
 2090              		.loc 1 892 20 is_stmt 0 view .LVU518
 2091 02a6 D4ED007A 		vldr.32	s15, [r4]	@ flashTimer.53_32, flashTimer
 2092              	@ src/main.c:892:     if (flashTimer > 0.0f) {
 2093              		.loc 1 892 8 view .LVU519
 2094 02aa F5EEC07A 		vcmpe.f32	s15, #0	@ flashTimer.53_32
 2095 02ae F1EE10FA 		vmrs	APSR_nzcv, FPSCR
 2096 02b2 26DD     		ble	.L111		@,
 2097              	.L103:
 2098              	.LBB248:
 893:src/main.c    ****         flashTimer -= dt;
 2099              		.loc 1 893 9 is_stmt 1 view .LVU520
 2100              	@ src/main.c:893:         flashTimer -= dt;
 2101              		.loc 1 893 20 is_stmt 0 view .LVU521
 2102 02b4 77EEC87A 		vsub.f32	s15, s15, s16	@ _33, flashTimer.53_32, dt
 2103              	@ src/main.c:895:         pd->display->setInverted(on ? !darkMode : darkMode);
 894:src/main.c    ****         int on = ((int)(flashTimer * FLASH_RATE)) & 1;
 895:src/main.c    ****         pd->display->setInverted(on ? !darkMode : darkMode);
 2104              		.loc 1 895 11 view .LVU522
 2105 02b8 D9F80030 		ldr	r3, [r9]	@ pd, pd
 2106              	@ src/main.c:894:         int on = ((int)(flashTimer * FLASH_RATE)) & 1;
 894:src/main.c    ****         int on = ((int)(flashTimer * FLASH_RATE)) & 1;
 2107              		.loc 1 894 36 view .LVU523
 2108 02bc B1EE087A 		vmov.f32	s14, #6.0e+0	@ tmp918,
 2109              	@ src/main.c:895:         pd->display->setInverted(on ? !darkMode : darkMode);
 2110              		.loc 1 895 39 view .LVU524
 2111 02c0 894D     		ldr	r5, .L392+20	@ tmp1514,
 2112              	@ src/main.c:895:         pd->display->setInverted(on ? !darkMode : darkMode);
 2113              		.loc 1 895 20 view .LVU525
 2114 02c2 1B69     		ldr	r3, [r3, #16]	@ pd.56_36->display, pd.56_36->display
 2115              	@ src/main.c:893:         flashTimer -= dt;
 893:src/main.c    ****         flashTimer -= dt;
 2116              		.loc 1 893 20 view .LVU526
 2117 02c4 C4ED007A 		vstr.32	s15, [r4]	@ _33, flashTimer
ARM GAS  /var/folders/ym/cl7zt4994p5_9n084fng6gl80000gn/T//ccxpWZpc.s 			page 60


 894:src/main.c    ****         int on = ((int)(flashTimer * FLASH_RATE)) & 1;
 2118              		.loc 1 894 9 is_stmt 1 view .LVU527
 2119              	.LVL94:
 2120              		.loc 1 895 9 view .LVU528
 2121              	@ src/main.c:894:         int on = ((int)(flashTimer * FLASH_RATE)) & 1;
 894:src/main.c    ****         int on = ((int)(flashTimer * FLASH_RATE)) & 1;
 2122              		.loc 1 894 36 is_stmt 0 view .LVU529
 2123 02c8 67EE877A 		vmul.f32	s15, s15, s14	@ tmp917, _33, tmp918
 2124              	.LVL95:
 2125              	@ src/main.c:895:         pd->display->setInverted(on ? !darkMode : darkMode);
 2126              		.loc 1 895 20 view .LVU530
 2127 02cc DB68     		ldr	r3, [r3, #12]	@ _38, _37->setInverted
 2128              	@ src/main.c:895:         pd->display->setInverted(on ? !darkMode : darkMode);
 2129              		.loc 1 895 39 view .LVU531
 2130 02ce 2868     		ldr	r0, [r5]	@ darkMode, darkMode
 2131              	@ src/main.c:894:         int on = ((int)(flashTimer * FLASH_RATE)) & 1;
 894:src/main.c    ****         int on = ((int)(flashTimer * FLASH_RATE)) & 1;
 2132              		.loc 1 894 19 view .LVU532
 2133 02d0 FDEEE77A 		vcvt.s32.f32	s15, s15	@ tmp919, tmp917
 2134              	@ src/main.c:895:         pd->display->setInverted(on ? !darkMode : darkMode);
 2135              		.loc 1 895 9 view .LVU533
 2136 02d4 17EE902A 		vmov	r2, s15	@ int	@ tmp919, tmp919
 2137 02d8 D607     		lsls	r6, r2, #31	@, tmp919,
 2138 02da 02D5     		bpl	.L113		@,
 2139              	@ src/main.c:895:         pd->display->setInverted(on ? !darkMode : darkMode);
 2140              		.loc 1 895 39 discriminator 1 view .LVU534
 2141 02dc B0FA80F0 		clz	r0, r0	@ iftmp.57_46, darkMode
 2142 02e0 4009     		lsrs	r0, r0, #5	@ iftmp.57_46, iftmp.57_46,
 2143              	.L113:
 2144              	@ src/main.c:895:         pd->display->setInverted(on ? !darkMode : darkMode);
 2145              		.loc 1 895 9 discriminator 4 view .LVU535
 2146 02e2 9847     		blx	r3		@ _38
 2147              	.LVL96:
 896:src/main.c    ****         if (flashTimer <= 0.0f) {
 2148              		.loc 1 896 9 is_stmt 1 discriminator 4 view .LVU536
 2149              	@ src/main.c:896:         if (flashTimer <= 0.0f) {
 2150              		.loc 1 896 12 is_stmt 0 discriminator 4 view .LVU537
 2151 02e4 D4ED007A 		vldr.32	s15, [r4]	@ flashTimer, flashTimer
 2152 02e8 0022     		movs	r2, #0	@ tmp927,
 2153 02ea F5EEC07A 		vcmpe.f32	s15, #0	@ flashTimer
 2154 02ee F1EE10FA 		vmrs	APSR_nzcv, FPSCR
 2155 02f2 06D8     		bhi	.L111		@,
 897:src/main.c    ****             flashTimer = 0.0f;
 2156              		.loc 1 897 13 is_stmt 1 view .LVU538
 2157              	@ src/main.c:898:             pd->display->setInverted(darkMode);
 898:src/main.c    ****             pd->display->setInverted(darkMode);
 2158              		.loc 1 898 15 is_stmt 0 view .LVU539
 2159 02f4 D9F80030 		ldr	r3, [r9]	@ pd, pd
 2160              	@ src/main.c:898:             pd->display->setInverted(darkMode);
 2161              		.loc 1 898 13 view .LVU540
 2162 02f8 2868     		ldr	r0, [r5]	@, darkMode
 2163              	@ src/main.c:898:             pd->display->setInverted(darkMode);
 2164              		.loc 1 898 24 view .LVU541
 2165 02fa 1B69     		ldr	r3, [r3, #16]	@ pd.60_42->display, pd.60_42->display
 2166              	@ src/main.c:897:             flashTimer = 0.0f;
 897:src/main.c    ****             flashTimer = 0.0f;
 2167              		.loc 1 897 24 view .LVU542
ARM GAS  /var/folders/ym/cl7zt4994p5_9n084fng6gl80000gn/T//ccxpWZpc.s 			page 61


 2168 02fc 2260     		str	r2, [r4]	@ float	@ tmp927, flashTimer
 2169              		.loc 1 898 13 is_stmt 1 view .LVU543
 2170 02fe DB68     		ldr	r3, [r3, #12]	@ _43->setInverted, _43->setInverted
 2171 0300 9847     		blx	r3		@ _43->setInverted
 2172              	.LVL97:
 2173              	.L111:
 2174              		.loc 1 898 13 is_stmt 0 view .LVU544
 2175              	.LBE248:
 899:src/main.c    ****         }
 900:src/main.c    ****     }
 901:src/main.c    **** 
 902:src/main.c    ****     UpdateDigits(dt);
 2176              		.loc 1 902 5 is_stmt 1 view .LVU545
 2177              	.LBB249:
 2178              	.LBI249:
 310:src/main.c    **** {
 2179              		.loc 1 310 13 view .LVU546
 2180              	.LBB250:
 312:src/main.c    **** 
 2181              		.loc 1 312 5 view .LVU547
 314:src/main.c    ****     FormatTime(timer.secondsLeft, timeText, sizeof(timeText));
 2182              		.loc 1 314 5 view .LVU548
 315:src/main.c    **** 
 2183              		.loc 1 315 5 view .LVU549
 2184              	.LBB251:
 2185              	.LBI251:
 216:src/main.c    **** {
 2186              		.loc 1 216 13 view .LVU550
 2187              	.LBB252:
 226:src/main.c    ****     int minutes = displaySeconds / 60;
 2188              		.loc 1 226 5 view .LVU551
 2189              	@ src/main.c:226:     int displaySeconds = (int)ceilf(seconds);
 226:src/main.c    ****     int minutes = displaySeconds / 60;
 2190              		.loc 1 226 31 is_stmt 0 view .LVU552
 2191 0302 DBED017A 		vldr.32	s15, [fp, #4]	@ timer.secondsLeft, timer.secondsLeft
 2192              	@ src/main.c:229:     snprintf(buffer, bufferSize, "%02d:%02d", minutes, secs);
 229:src/main.c    **** }
 2193              		.loc 1 229 5 view .LVU553
 2194 0306 1021     		movs	r1, #16	@,
 2195              	@ src/main.c:227:     int minutes = displaySeconds / 60;
 227:src/main.c    ****     int secs = displaySeconds % 60;
 2196              		.loc 1 227 9 view .LVU554
 2197 0308 784D     		ldr	r5, .L392+24	@ tmp941,
 2198              	@ src/main.c:229:     snprintf(buffer, bufferSize, "%02d:%02d", minutes, secs);
 229:src/main.c    **** }
 2199              		.loc 1 229 5 view .LVU555
 2200 030a 0AA8     		add	r0, sp, #40	@ tmp1682,,
 2201              	.LVL98:
 2202              	@ src/main.c:226:     int displaySeconds = (int)ceilf(seconds);
 226:src/main.c    ****     int minutes = displaySeconds / 60;
 2203              		.loc 1 226 31 view .LVU556
 2204 030c FAFE677A 		vrintp.f32	s15, s15	@ _203, timer.secondsLeft
 2205              	@ src/main.c:226:     int displaySeconds = (int)ceilf(seconds);
 226:src/main.c    ****     int minutes = displaySeconds / 60;
 2206              		.loc 1 226 9 view .LVU557
 2207 0310 FDEEE77A 		vcvt.s32.f32	s15, s15	@ displaySeconds, _203
 2208              	.LBE252:
ARM GAS  /var/folders/ym/cl7zt4994p5_9n084fng6gl80000gn/T//ccxpWZpc.s 			page 62


 2209              	.LBE251:
 2210              	@ src/main.c:322:     int dir = (prevSeconds >= 0.0f && timer.secondsLeft > prevSeconds) ? -1 : 1;
 322:src/main.c    ****     prevSeconds = timer.secondsLeft;
 2211              		.loc 1 322 28 view .LVU558
 2212 0314 764F     		ldr	r7, .L392+28	@ tmp1495,
 2213              	.LBB254:
 2214              	.LBB253:
 2215              	@ src/main.c:229:     snprintf(buffer, bufferSize, "%02d:%02d", minutes, secs);
 229:src/main.c    **** }
 2216              		.loc 1 229 5 view .LVU559
 2217 0316 774A     		ldr	r2, .L392+32	@,
 2218              	@ src/main.c:226:     int displaySeconds = (int)ceilf(seconds);
 226:src/main.c    ****     int minutes = displaySeconds / 60;
 2219              		.loc 1 226 9 view .LVU560
 2220 0318 17EE904A 		vmov	r4, s15	@ int	@ displaySeconds, displaySeconds
 2221              	.LVL99:
 227:src/main.c    ****     int secs = displaySeconds % 60;
 2222              		.loc 1 227 5 is_stmt 1 view .LVU561
 228:src/main.c    ****     snprintf(buffer, bufferSize, "%02d:%02d", minutes, secs);
 2223              		.loc 1 228 5 view .LVU562
 229:src/main.c    **** }
 2224              		.loc 1 229 5 view .LVU563
 2225              	@ src/main.c:227:     int minutes = displaySeconds / 60;
 227:src/main.c    ****     int secs = displaySeconds % 60;
 2226              		.loc 1 227 9 is_stmt 0 view .LVU564
 2227 031c 85FB0435 		smull	r3, r5, r5, r4	@ tmp1642, tmp940, tmp941, displaySeconds
 2228 0320 E317     		asrs	r3, r4, #31	@ tmp944, displaySeconds,
 2229 0322 2544     		add	r5, r5, r4	@ tmp942, displaySeconds
 2230 0324 C3EB6513 		rsb	r3, r3, r5, asr #5	@ minutes, tmp944, tmp942,
 2231              	@ src/main.c:228:     int secs = displaySeconds % 60;
 228:src/main.c    ****     snprintf(buffer, bufferSize, "%02d:%02d", minutes, secs);
 2232              		.loc 1 228 9 view .LVU565
 2233 0328 C3EB0315 		rsb	r5, r3, r3, lsl #4	@ tmp955, minutes, minutes,
 2234 032c A4EB8504 		sub	r4, r4, r5, lsl #2	@ secs, displaySeconds, tmp955,
 2235              	.LVL100:
 2236              	@ src/main.c:229:     snprintf(buffer, bufferSize, "%02d:%02d", minutes, secs);
 229:src/main.c    **** }
 2237              		.loc 1 229 5 view .LVU566
 2238 0330 0094     		str	r4, [sp]	@ secs,
 2239 0332 FFF7FEFF 		bl	snprintf		@
 2240              	.LVL101:
 229:src/main.c    **** }
 2241              		.loc 1 229 5 view .LVU567
 2242              	.LBE253:
 2243              	.LBE254:
 318:src/main.c    **** 
 2244              		.loc 1 318 5 is_stmt 1 view .LVU568
 2245              	@ src/main.c:322:     int dir = (prevSeconds >= 0.0f && timer.secondsLeft > prevSeconds) ? -1 : 1;
 322:src/main.c    ****     prevSeconds = timer.secondsLeft;
 2246              		.loc 1 322 28 is_stmt 0 view .LVU569
 2247 0336 97ED007A 		vldr.32	s14, [r7]	@ prevSeconds.96_191, prevSeconds
 2248              	@ src/main.c:318:     char chars[DIGIT_COUNT] = { timeText[0], timeText[1], timeText[3], timeText[4
 318:src/main.c    **** 
 2249              		.loc 1 318 10 view .LVU570
 2250 033a 9DF82B20 		ldrb	r2, [sp, #43]	@ zero_extendqisi2	@ timeText, timeText
 2251              	@ src/main.c:322:     int dir = (prevSeconds >= 0.0f && timer.secondsLeft > prevSeconds) ? -1 : 1;
 322:src/main.c    ****     prevSeconds = timer.secondsLeft;
ARM GAS  /var/folders/ym/cl7zt4994p5_9n084fng6gl80000gn/T//ccxpWZpc.s 			page 63


 2252              		.loc 1 322 77 view .LVU571
 2253 033e B5EEC07A 		vcmpe.f32	s14, #0	@ prevSeconds.96_191
 2254              	@ src/main.c:318:     char chars[DIGIT_COUNT] = { timeText[0], timeText[1], timeText[3], timeText[4
 318:src/main.c    **** 
 2255              		.loc 1 318 10 view .LVU572
 2256 0342 9DF82910 		ldrb	r1, [sp, #41]	@ zero_extendqisi2	@ timeText, timeText
 2257 0346 9DF82C30 		ldrb	r3, [sp, #44]	@ zero_extendqisi2	@ timeText, timeText
 2258 034a 8DF82620 		strb	r2, [sp, #38]	@ timeText, chars
 2259              	@ src/main.c:322:     int dir = (prevSeconds >= 0.0f && timer.secondsLeft > prevSeconds) ? -1 : 1;
 322:src/main.c    ****     prevSeconds = timer.secondsLeft;
 2260              		.loc 1 322 77 view .LVU573
 2261 034e F1EE10FA 		vmrs	APSR_nzcv, FPSCR
 2262              	@ src/main.c:318:     char chars[DIGIT_COUNT] = { timeText[0], timeText[1], timeText[3], timeText[4
 318:src/main.c    **** 
 2263              		.loc 1 318 41 view .LVU574
 2264 0352 9DF82820 		ldrb	r2, [sp, #40]	@ zero_extendqisi2	@ _187, timeText
 2265              	@ src/main.c:322:     int dir = (prevSeconds >= 0.0f && timer.secondsLeft > prevSeconds) ? -1 : 1;
 322:src/main.c    ****     prevSeconds = timer.secondsLeft;
 2266              		.loc 1 322 44 view .LVU575
 2267 0356 DBED017A 		vldr.32	s15, [fp, #4]	@ prephitmp_758, timer.secondsLeft
 2268              	@ src/main.c:318:     char chars[DIGIT_COUNT] = { timeText[0], timeText[1], timeText[3], timeText[4
 318:src/main.c    **** 
 2269              		.loc 1 318 10 view .LVU576
 2270 035a 8DF82510 		strb	r1, [sp, #37]	@ timeText, chars
 2271 035e 8DF82730 		strb	r3, [sp, #39]	@ timeText, chars
 322:src/main.c    ****     prevSeconds = timer.secondsLeft;
 2272              		.loc 1 322 5 is_stmt 1 view .LVU577
 2273              	@ src/main.c:322:     int dir = (prevSeconds >= 0.0f && timer.secondsLeft > prevSeconds) ? -1 : 1;
 322:src/main.c    ****     prevSeconds = timer.secondsLeft;
 2274              		.loc 1 322 77 is_stmt 0 view .LVU578
 2275 0362 C0F23581 		blt	.L117		@,
 2276              	@ src/main.c:322:     int dir = (prevSeconds >= 0.0f && timer.secondsLeft > prevSeconds) ? -1 : 1;
 322:src/main.c    ****     prevSeconds = timer.secondsLeft;
 2277              		.loc 1 322 36 view .LVU579
 2278 0366 B4EEE77A 		vcmpe.f32	s14, s15	@ prevSeconds.96_191, prephitmp_758
 2279 036a F1EE10FA 		vmrs	APSR_nzcv, FPSCR
 2280 036e 40F12F81 		bpl	.L117		@,
 2281              	@ src/main.c:322:     int dir = (prevSeconds >= 0.0f && timer.secondsLeft > prevSeconds) ? -1 : 1;
 322:src/main.c    ****     prevSeconds = timer.secondsLeft;
 2282              		.loc 1 322 77 view .LVU580
 2283 0372 4FF0FF36 		mov	r6, #-1	@ iftmp.95_197,
 2284              	.L118:
 2285              	.LVL102:
 323:src/main.c    **** 
 2286              		.loc 1 323 5 is_stmt 1 view .LVU581
 2287 0376 DFF894A1 		ldr	r10, .L392+56	@ ivtmp.313,
 2288              	.LBB255:
 2289              	@ src/main.c:334:             digits[i].progress += dt * FLIP_SPEED;
 334:src/main.c    ****             if (digits[i].progress >= 1.0f) {
 2290              		.loc 1 334 32 is_stmt 0 view .LVU582
 2291 037a F1EE006A 		vmov.f32	s13, #4.0e+0	@ tmp1548,
 2292              	.LBE255:
 2293              	@ src/main.c:323:     prevSeconds = timer.secondsLeft;
 323:src/main.c    **** 
 2294              		.loc 1 323 17 view .LVU583
 2295 037e C7ED007A 		vstr.32	s15, [r7]	@ prephitmp_758, prevSeconds
 325:src/main.c    ****         if (digits[i].value != chars[i]) {
ARM GAS  /var/folders/ym/cl7zt4994p5_9n084fng6gl80000gn/T//ccxpWZpc.s 			page 64


 2296              		.loc 1 325 5 is_stmt 1 view .LVU584
 2297              	.LBB256:
 325:src/main.c    ****         if (digits[i].value != chars[i]) {
 2298              		.loc 1 325 10 view .LVU585
 2299              	.LVL103:
 325:src/main.c    ****         if (digits[i].value != chars[i]) {
 2300              		.loc 1 325 21 view .LVU586
 2301              	@ src/main.c:335:             if (digits[i].progress >= 1.0f) {
 335:src/main.c    ****                 digits[i].progress = 1.0f;
 2302              		.loc 1 335 16 is_stmt 0 view .LVU587
 2303 0382 B7EE007A 		vmov.f32	s14, #1.0e+0	@ tmp1549,
 2304              	.LBE256:
 2305              	@ src/main.c:323:     prevSeconds = timer.secondsLeft;
 323:src/main.c    **** 
 2306              		.loc 1 323 17 view .LVU588
 2307 0386 5346     		mov	r3, r10	@ ivtmp.351, ivtmp.313
 2308 0388 0DF12501 		add	r1, sp, #37	@ ivtmp.358,,
 2309              	.LVL104:
 2310              	.LBB257:
 326:src/main.c    ****             digits[i].prev = digits[i].value;
 2311              		.loc 1 326 9 is_stmt 1 view .LVU589
 327:src/main.c    ****             digits[i].value = chars[i];
 2312              		.loc 1 327 13 view .LVU590
 2313 038c 0AF14005 		add	r5, r10, #64	@ _618, ivtmp.313,
 2314              	@ src/main.c:337:                 digits[i].flipping = 0;
 337:src/main.c    ****             }
 2315              		.loc 1 337 36 is_stmt 0 view .LVU591
 2316 0390 0024     		movs	r4, #0	@ tmp1550,
 2317              	@ src/main.c:326:         if (digits[i].value != chars[i]) {
 326:src/main.c    ****             digits[i].prev = digits[i].value;
 2318              		.loc 1 326 22 view .LVU592
 2319 0392 1F78     		ldrb	r7, [r3]	@ zero_extendqisi2	@ _195, MEM[base: _906, offset: 0B]
 2320              	@ src/main.c:329:             digits[i].progress = 0.0f;
 329:src/main.c    ****             digits[i].flipping = 1;
 2321              		.loc 1 329 32 view .LVU593
 2322 0394 4FF0000C 		mov	ip, #0	@ tmp1551,
 2323              	@ src/main.c:330:             digits[i].flipping = 1;
 330:src/main.c    ****             digits[i].dir = dir;
 2324              		.loc 1 330 32 view .LVU594
 2325 0398 0120     		movs	r0, #1	@ tmp1552,
 2326              	@ src/main.c:326:         if (digits[i].value != chars[i]) {
 326:src/main.c    ****             digits[i].prev = digits[i].value;
 2327              		.loc 1 326 12 view .LVU595
 2328 039a 9742     		cmp	r7, r2	@ _195, _187
 2329 039c 1AD0     		beq	.L119		@,
 2330              	.LVL105:
 2331              	.L356:
 2332              	@ src/main.c:327:             digits[i].prev = digits[i].value;
 327:src/main.c    ****             digits[i].value = chars[i];
 2333              		.loc 1 327 28 view .LVU596
 2334 039e 5F70     		strb	r7, [r3, #1]	@ _195, MEM[base: _906, offset: 1B]
 328:src/main.c    ****             digits[i].progress = 0.0f;
 2335              		.loc 1 328 13 is_stmt 1 view .LVU597
 2336              	@ src/main.c:328:             digits[i].value = chars[i];
 328:src/main.c    ****             digits[i].progress = 0.0f;
 2337              		.loc 1 328 29 is_stmt 0 view .LVU598
 2338 03a0 1A70     		strb	r2, [r3]	@ _187, MEM[base: _906, offset: 0B]
ARM GAS  /var/folders/ym/cl7zt4994p5_9n084fng6gl80000gn/T//ccxpWZpc.s 			page 65


 329:src/main.c    ****             digits[i].flipping = 1;
 2339              		.loc 1 329 13 is_stmt 1 view .LVU599
 2340              	@ src/main.c:329:             digits[i].progress = 0.0f;
 329:src/main.c    ****             digits[i].flipping = 1;
 2341              		.loc 1 329 32 is_stmt 0 view .LVU600
 2342 03a2 C3F804C0 		str	ip, [r3, #4]	@ float	@ tmp1551, MEM[base: _906, offset: 4B]
 330:src/main.c    ****             digits[i].dir = dir;
 2343              		.loc 1 330 13 is_stmt 1 view .LVU601
 2344              	@ src/main.c:331:             digits[i].dir = dir;
 331:src/main.c    ****         }
 2345              		.loc 1 331 27 is_stmt 0 view .LVU602
 2346 03a6 C3E90206 		strd	r0, r6, [r3, #8]	@ tmp1552, iftmp.95_197, ivtmp.351,
 333:src/main.c    ****             digits[i].progress += dt * FLIP_SPEED;
 2347              		.loc 1 333 9 is_stmt 1 view .LVU603
 2348              	.L120:
 334:src/main.c    ****             if (digits[i].progress >= 1.0f) {
 2349              		.loc 1 334 13 view .LVU604
 336:src/main.c    ****                 digits[i].flipping = 0;
 2350              		.loc 1 336 17 view .LVU605
 2351              	@ src/main.c:334:             digits[i].progress += dt * FLIP_SPEED;
 334:src/main.c    ****             if (digits[i].progress >= 1.0f) {
 2352              		.loc 1 334 32 is_stmt 0 view .LVU606
 2353 03aa D3ED017A 		vldr.32	s15, [r3, #4]	@ MEM[base: _906, offset: 4B], MEM[base: _906, offset: 4B]
 2354 03ae E8EE267A 		vfma.f32	s15, s16, s13	@ _201, dt, tmp1548
 335:src/main.c    ****                 digits[i].progress = 1.0f;
 2355              		.loc 1 335 13 is_stmt 1 view .LVU607
 2356              	@ src/main.c:335:             if (digits[i].progress >= 1.0f) {
 335:src/main.c    ****                 digits[i].progress = 1.0f;
 2357              		.loc 1 335 16 is_stmt 0 view .LVU608
 2358 03b2 F4EEC77A 		vcmpe.f32	s15, s14	@ _201, tmp1549
 2359 03b6 F1EE10FA 		vmrs	APSR_nzcv, FPSCR
 2360 03ba C0F20681 		blt	.L355		@,
 2361              	@ src/main.c:336:                 digits[i].progress = 1.0f;
 336:src/main.c    ****                 digits[i].flipping = 0;
 2362              		.loc 1 336 36 view .LVU609
 2363 03be 83ED017A 		vstr.32	s14, [r3, #4]	@ tmp1549, MEM[base: _906, offset: 4B]
 337:src/main.c    ****             }
 2364              		.loc 1 337 17 is_stmt 1 view .LVU610
 2365              	@ src/main.c:337:                 digits[i].flipping = 0;
 337:src/main.c    ****             }
 2366              		.loc 1 337 36 is_stmt 0 view .LVU611
 2367 03c2 9C60     		str	r4, [r3, #8]	@ tmp1550, MEM[base: _906, offset: 8B]
 2368              	.L121:
 325:src/main.c    ****         if (digits[i].value != chars[i]) {
 2369              		.loc 1 325 38 is_stmt 1 view .LVU612
 2370              	.LVL106:
 325:src/main.c    ****         if (digits[i].value != chars[i]) {
 2371              		.loc 1 325 21 view .LVU613
 2372 03c4 1033     		adds	r3, r3, #16	@ ivtmp.351, ivtmp.351,
 2373              	@ src/main.c:325:     for (int i = 0; i < DIGIT_COUNT; i++) {
 325:src/main.c    ****         if (digits[i].value != chars[i]) {
 2374              		.loc 1 325 5 is_stmt 0 view .LVU614
 2375 03c6 9D42     		cmp	r5, r3	@ _618, ivtmp.351
 2376 03c8 0AD0     		beq	.L124		@,
 2377              	.LVL107:
 2378              	.L357:
 325:src/main.c    ****         if (digits[i].value != chars[i]) {
ARM GAS  /var/folders/ym/cl7zt4994p5_9n084fng6gl80000gn/T//ccxpWZpc.s 			page 66


 2379              		.loc 1 325 5 view .LVU615
 2380 03ca 11F8012B 		ldrb	r2, [r1], #1	@ zero_extendqisi2	@ _187, MEM[base: _645, offset: 0B]
 2381              	.LVL108:
 326:src/main.c    ****             digits[i].prev = digits[i].value;
 2382              		.loc 1 326 9 is_stmt 1 view .LVU616
 327:src/main.c    ****             digits[i].value = chars[i];
 2383              		.loc 1 327 13 view .LVU617
 2384              	@ src/main.c:326:         if (digits[i].value != chars[i]) {
 326:src/main.c    ****             digits[i].prev = digits[i].value;
 2385              		.loc 1 326 22 is_stmt 0 view .LVU618
 2386 03ce 1F78     		ldrb	r7, [r3]	@ zero_extendqisi2	@ _195, MEM[base: _906, offset: 0B]
 2387              	@ src/main.c:326:         if (digits[i].value != chars[i]) {
 326:src/main.c    ****             digits[i].prev = digits[i].value;
 2388              		.loc 1 326 12 view .LVU619
 2389 03d0 9742     		cmp	r7, r2	@ _195, _187
 2390 03d2 E4D1     		bne	.L356		@,
 2391              	.LVL109:
 2392              	.L119:
 333:src/main.c    ****             digits[i].progress += dt * FLIP_SPEED;
 2393              		.loc 1 333 9 is_stmt 1 view .LVU620
 2394              	@ src/main.c:333:         if (digits[i].flipping) {
 333:src/main.c    ****             digits[i].progress += dt * FLIP_SPEED;
 2395              		.loc 1 333 12 is_stmt 0 view .LVU621
 2396 03d4 9A68     		ldr	r2, [r3, #8]	@ MEM[base: _906, offset: 8B], MEM[base: _906, offset: 8B]
 2397 03d6 002A     		cmp	r2, #0	@ MEM[base: _906, offset: 8B]
 2398 03d8 E7D1     		bne	.L120	@
 325:src/main.c    ****         if (digits[i].value != chars[i]) {
 2399              		.loc 1 325 38 is_stmt 1 view .LVU622
 2400              	.LVL110:
 325:src/main.c    ****         if (digits[i].value != chars[i]) {
 2401              		.loc 1 325 21 view .LVU623
 2402 03da 1033     		adds	r3, r3, #16	@ ivtmp.351, ivtmp.351,
 2403              	@ src/main.c:325:     for (int i = 0; i < DIGIT_COUNT; i++) {
 325:src/main.c    ****         if (digits[i].value != chars[i]) {
 2404              		.loc 1 325 5 is_stmt 0 view .LVU624
 2405 03dc 9D42     		cmp	r5, r3	@ _618, ivtmp.351
 2406 03de F4D1     		bne	.L357		@,
 2407              	.LVL111:
 2408              	.L124:
 325:src/main.c    ****         if (digits[i].value != chars[i]) {
 2409              		.loc 1 325 5 view .LVU625
 2410              	.LBE257:
 2411              	.LBE250:
 2412              	.LBE249:
 903:src/main.c    ****     Draw();
 2413              		.loc 1 903 5 is_stmt 1 view .LVU626
 2414              	.LBB260:
 2415              	.LBI260:
 814:src/main.c    **** {
 2416              		.loc 1 814 13 view .LVU627
 2417              	.LBB261:
 816:src/main.c    **** 
 2418              		.loc 1 816 5 view .LVU628
 2419              	@ src/main.c:816:     pd->graphics->clear(kColorWhite);
 816:src/main.c    **** 
 2420              		.loc 1 816 7 is_stmt 0 view .LVU629
 2421 03e0 D9F80030 		ldr	r3, [r9]	@ pd, pd
ARM GAS  /var/folders/ym/cl7zt4994p5_9n084fng6gl80000gn/T//ccxpWZpc.s 			page 67


 2422              	@ src/main.c:816:     pd->graphics->clear(kColorWhite);
 816:src/main.c    **** 
 2423              		.loc 1 816 5 view .LVU630
 2424 03e4 0120     		movs	r0, #1	@,
 2425              	@ src/main.c:816:     pd->graphics->clear(kColorWhite);
 816:src/main.c    **** 
 2426              		.loc 1 816 17 view .LVU631
 2427 03e6 9B68     		ldr	r3, [r3, #8]	@ pd.99_179->graphics, pd.99_179->graphics
 2428              	@ src/main.c:816:     pd->graphics->clear(kColorWhite);
 816:src/main.c    **** 
 2429              		.loc 1 816 5 view .LVU632
 2430 03e8 5B68     		ldr	r3, [r3, #4]	@ _180->clear, _180->clear
 2431 03ea 9847     		blx	r3		@ _180->clear
 2432              	.LVL112:
 818:src/main.c    ****         DrawFloodBackground();
 2433              		.loc 1 818 5 is_stmt 1 view .LVU633
 2434              	@ src/main.c:818:     if (barStyle == BAR_FLOOD) {
 818:src/main.c    ****         DrawFloodBackground();
 2435              		.loc 1 818 18 is_stmt 0 view .LVU634
 2436 03ec 029B     		ldr	r3, [sp, #8]	@ tmp1515, %sfp
 2437 03ee 1B68     		ldr	r3, [r3]	@ barStyle.100_182, barStyle
 2438              	@ src/main.c:818:     if (barStyle == BAR_FLOOD) {
 818:src/main.c    ****         DrawFloodBackground();
 2439              		.loc 1 818 8 view .LVU635
 2440 03f0 012B     		cmp	r3, #1	@ barStyle.100_182,
 2441 03f2 00F0A683 		beq	.L358		@,
 820:src/main.c    ****         DrawSnowBackground();
 2442              		.loc 1 820 12 is_stmt 1 view .LVU636
 2443              	@ src/main.c:820:     } else if (barStyle == BAR_SNOW) {
 820:src/main.c    ****         DrawSnowBackground();
 2444              		.loc 1 820 15 is_stmt 0 view .LVU637
 2445 03f6 032B     		cmp	r3, #3	@ barStyle.100_182,
 2446 03f8 00F05585 		beq	.L359		@,
 2447              	.LVL113:
 2448              	.L142:
 825:src/main.c    ****     if (timer.state == TIMER_PAUSED) {
 2449              		.loc 1 825 5 is_stmt 1 view .LVU638
 826:src/main.c    ****         float phase = pauseBlink / PAUSE_BLINK_PERIOD;
 2450              		.loc 1 826 5 view .LVU639
 2451              	@ src/main.c:826:     if (timer.state == TIMER_PAUSED) {
 826:src/main.c    ****         float phase = pauseBlink / PAUSE_BLINK_PERIOD;
 2452              		.loc 1 826 8 is_stmt 0 view .LVU640
 2453 03fc 9BF80830 		ldrb	r3, [fp, #8]	@ zero_extendqisi2	@ timer.state, timer.state
 2454 0400 022B     		cmp	r3, #2	@ timer.state,
 2455 0402 0AD1     		bne	.L149		@,
 2456              	.LBB262:
 827:src/main.c    ****         if (phase >= 0.6f) hideClock = 1;
 2457              		.loc 1 827 9 is_stmt 1 view .LVU641
 2458              	.LVL114:
 828:src/main.c    ****     }
 2459              		.loc 1 828 9 view .LVU642
 2460              	@ src/main.c:828:         if (phase >= 0.6f) hideClock = 1;
 828:src/main.c    ****     }
 2461              		.loc 1 828 12 is_stmt 0 view .LVU643
 2462 0404 049B     		ldr	r3, [sp, #16]	@ tmp1508, %sfp
 2463 0406 DFED3C7A 		vldr.32	s15, .L392+36	@ tmp1099,
 2464 040a 93ED007A 		vldr.32	s14, [r3]	@ pauseBlink, pauseBlink
ARM GAS  /var/folders/ym/cl7zt4994p5_9n084fng6gl80000gn/T//ccxpWZpc.s 			page 68


 2465 040e B4EEE77A 		vcmpe.f32	s14, s15	@ pauseBlink, tmp1099
 2466 0412 F1EE10FA 		vmrs	APSR_nzcv, FPSCR
 2467 0416 80F2C780 		bge	.L168		@,
 2468              	.LVL115:
 2469              	.L149:
 828:src/main.c    ****     }
 2470              		.loc 1 828 12 view .LVU644
 2471              	.LBE262:
 832:src/main.c    ****     }
 2472              		.loc 1 832 9 is_stmt 1 view .LVU645
 2473              	.LBB263:
 2474              	.LBI263:
 431:src/main.c    **** {
 2475              		.loc 1 431 13 view .LVU646
 2476              	.LBB264:
 433:src/main.c    **** 
 2477              		.loc 1 433 5 view .LVU647
 2478              	@ src/main.c:433:     pd->graphics->setDrawMode(kDrawModeCopy);
 433:src/main.c    **** 
 2479              		.loc 1 433 7 is_stmt 0 view .LVU648
 2480 041a D9F80030 		ldr	r3, [r9]	@ pd, pd
 2481              	@ src/main.c:433:     pd->graphics->setDrawMode(kDrawModeCopy);
 433:src/main.c    **** 
 2482              		.loc 1 433 5 view .LVU649
 2483 041e 0020     		movs	r0, #0	@,
 2484              	@ src/main.c:433:     pd->graphics->setDrawMode(kDrawModeCopy);
 433:src/main.c    **** 
 2485              		.loc 1 433 17 view .LVU650
 2486 0420 9B68     		ldr	r3, [r3, #8]	@ pd.115_326->graphics, pd.115_326->graphics
 2487              	@ src/main.c:433:     pd->graphics->setDrawMode(kDrawModeCopy);
 433:src/main.c    **** 
 2488              		.loc 1 433 5 view .LVU651
 2489 0422 1B69     		ldr	r3, [r3, #16]	@ _327->setDrawMode, _327->setDrawMode
 2490 0424 9847     		blx	r3		@ _327->setDrawMode
 2491              	.LVL116:
 436:src/main.c    ****         // ÕłåķÆ¤õĖ║ 0’╝łõĖŹĶČ│ 1 ÕłåķÆ¤’╝ē’╝ÜÕÅ¬µśŠńż║µöŠÕż¦Õ▒ģõĖŁńÜäń¦ÆµĢ░
 2492              		.loc 1 436 5 is_stmt 1 view .LVU652
 2493              	@ src/main.c:436:     if (barStyle == BAR_RING) {
 436:src/main.c    ****         // ÕłåķÆ¤õĖ║ 0’╝łõĖŹĶČ│ 1 ÕłåķÆ¤’╝ē’╝ÜÕÅ¬µśŠńż║µöŠÕż¦Õ▒ģõĖŁńÜäń¦ÆµĢ░
 2494              		.loc 1 436 18 is_stmt 0 view .LVU653
 2495 0426 029B     		ldr	r3, [sp, #8]	@ tmp1515, %sfp
 2496 0428 1A68     		ldr	r2, [r3]	@ barStyle.116_329, barStyle
 2497              	@ src/main.c:436:     if (barStyle == BAR_RING) {
 436:src/main.c    ****         // ÕłåķÆ¤õĖ║ 0’╝łõĖŹĶČ│ 1 ÕłåķÆ¤’╝ē’╝ÜÕÅ¬µśŠńż║µöŠÕż¦Õ▒ģõĖŁńÜäń¦ÆµĢ░
 2498              		.loc 1 436 8 view .LVU654
 2499 042a 022A     		cmp	r2, #2	@ barStyle.116_329,
 2500 042c 70D0     		beq	.L360		@,
 472:src/main.c    **** 
 2501              		.loc 1 472 5 is_stmt 1 view .LVU655
 2502              	@ src/main.c:474:     int cw = (int)(cardW * digitScale);
 474:src/main.c    ****     int ch = (int)(halfH * digitScale) * 2;
 2503              		.loc 1 474 26 is_stmt 0 view .LVU656
 2504 042e 3348     		ldr	r0, .L392+40	@ tmp1206,
 2505              	@ src/main.c:472:     digitScale = DIGIT_SCALE;
 472:src/main.c    **** 
 2506              		.loc 1 472 16 view .LVU657
 2507 0430 4FF07E51 		mov	r1, #1065353216	@ tmp1205,
ARM GAS  /var/folders/ym/cl7zt4994p5_9n084fng6gl80000gn/T//ccxpWZpc.s 			page 69


 2508              	@ src/main.c:475:     int ch = (int)(halfH * digitScale) * 2;
 475:src/main.c    ****     int gap = (int)(8 * digitScale);
 2509              		.loc 1 475 26 view .LVU658
 2510 0434 324B     		ldr	r3, .L392+44	@ tmp1209,
 2511              	@ src/main.c:474:     int cw = (int)(cardW * digitScale);
 474:src/main.c    ****     int ch = (int)(halfH * digitScale) * 2;
 2512              		.loc 1 474 26 view .LVU659
 2513 0436 D0ED007A 		vldr.32	s15, [r0]	@ int	@ cardW, cardW
 2514              	@ src/main.c:475:     int ch = (int)(halfH * digitScale) * 2;
 475:src/main.c    ****     int gap = (int)(8 * digitScale);
 2515              		.loc 1 475 26 view .LVU660
 2516 043a 93ED007A 		vldr.32	s14, [r3]	@ int	@ halfH, halfH
 2517              	@ src/main.c:474:     int cw = (int)(cardW * digitScale);
 474:src/main.c    ****     int ch = (int)(halfH * digitScale) * 2;
 2518              		.loc 1 474 26 view .LVU661
 2519 043e F8EEE77A 		vcvt.f32.s32	s15, s15	@ tmp1207, cardW
 2520              	@ src/main.c:472:     digitScale = DIGIT_SCALE;
 472:src/main.c    **** 
 2521              		.loc 1 472 16 view .LVU662
 2522 0442 304B     		ldr	r3, .L392+48	@ tmp1204,
 2523              	@ src/main.c:475:     int ch = (int)(halfH * digitScale) * 2;
 475:src/main.c    ****     int gap = (int)(8 * digitScale);
 2524              		.loc 1 475 26 view .LVU663
 2525 0444 B8EEC77A 		vcvt.f32.s32	s14, s14	@ tmp1210, halfH
 2526              	@ src/main.c:472:     digitScale = DIGIT_SCALE;
 472:src/main.c    **** 
 2527              		.loc 1 472 16 view .LVU664
 2528 0448 1960     		str	r1, [r3]	@ float	@ tmp1205, digitScale
 474:src/main.c    ****     int ch = (int)(halfH * digitScale) * 2;
 2529              		.loc 1 474 5 is_stmt 1 view .LVU665
 2530              	@ src/main.c:474:     int cw = (int)(cardW * digitScale);
 474:src/main.c    ****     int ch = (int)(halfH * digitScale) * 2;
 2531              		.loc 1 474 9 is_stmt 0 view .LVU666
 2532 044a FDEEE77A 		vcvt.s32.f32	s15, s15	@ cw, tmp1207
 2533              	@ src/main.c:475:     int ch = (int)(halfH * digitScale) * 2;
 475:src/main.c    ****     int gap = (int)(8 * digitScale);
 2534              		.loc 1 475 14 view .LVU667
 2535 044e BDEEC77A 		vcvt.s32.f32	s14, s14	@ tmp1212, tmp1210
 2536              	@ src/main.c:474:     int cw = (int)(cardW * digitScale);
 474:src/main.c    ****     int ch = (int)(halfH * digitScale) * 2;
 2537              		.loc 1 474 9 view .LVU668
 2538 0452 17EE903A 		vmov	r3, s15	@ int	@ cw, cw
 2539              	.LVL117:
 475:src/main.c    ****     int gap = (int)(8 * digitScale);
 2540              		.loc 1 475 5 is_stmt 1 view .LVU669
 2541              	@ src/main.c:475:     int ch = (int)(halfH * digitScale) * 2;
 475:src/main.c    ****     int gap = (int)(8 * digitScale);
 2542              		.loc 1 475 9 is_stmt 0 view .LVU670
 2543 0456 17EE100A 		vmov	r0, s14	@ int	@ tmp1212, tmp1212
 2544              	@ src/main.c:478:     int totalW = DIGIT_COUNT * cw + 2 * gap + colonW;
 478:src/main.c    ****     int startX = (400 - totalW) / 2;
 2545              		.loc 1 478 35 view .LVU671
 2546 045a 9900     		lsls	r1, r3, #2	@ tmp1214, cw,
 2547              	@ src/main.c:475:     int ch = (int)(halfH * digitScale) * 2;
 475:src/main.c    ****     int gap = (int)(8 * digitScale);
 2548              		.loc 1 475 9 view .LVU672
 2549 045c 4000     		lsls	r0, r0, #1	@ ch, tmp1212,
ARM GAS  /var/folders/ym/cl7zt4994p5_9n084fng6gl80000gn/T//ccxpWZpc.s 			page 70


 2550              	@ src/main.c:479:     int startX = (400 - totalW) / 2;
 479:src/main.c    ****     // µ░┤µ│óµØĪµĀĘÕ╝Å’╝ÜµŚČķÆ¤ + Ķ┐øÕ║”µØĪµĢ┤õĮōÕ×éńø┤Õ▒ģõĖŁ’╝øÕģČÕ«āµĀĘÕ╝ÅµŚČķÆ¤ÕŹĢńŗ¼Õ▒ģõĖŁ
 2551              		.loc 1 479 9 view .LVU673
 2552 045e D1F5B671 		rsbs	r1, r1, #364	@ tmp1218, tmp1214,
 2553              	@ src/main.c:475:     int ch = (int)(halfH * digitScale) * 2;
 475:src/main.c    ****     int gap = (int)(8 * digitScale);
 2554              		.loc 1 475 9 view .LVU674
 2555 0462 0490     		str	r0, [sp, #16]	@ ch, %sfp
 2556              	.LVL118:
 476:src/main.c    ****     int colonW = (int)(20 * digitScale);
 2557              		.loc 1 476 5 is_stmt 1 view .LVU675
 477:src/main.c    ****     int totalW = DIGIT_COUNT * cw + 2 * gap + colonW;
 2558              		.loc 1 477 5 view .LVU676
 478:src/main.c    ****     int startX = (400 - totalW) / 2;
 2559              		.loc 1 478 5 view .LVU677
 479:src/main.c    ****     // µ░┤µ│óµØĪµĀĘÕ╝Å’╝ÜµŚČķÆ¤ + Ķ┐øÕ║”µØĪµĢ┤õĮōÕ×éńø┤Õ▒ģõĖŁ’╝øÕģČÕ«āµĀĘÕ╝ÅµŚČķÆ¤ÕŹĢńŗ¼Õ▒ģõĖŁ
 2560              		.loc 1 479 5 view .LVU678
 2561              	@ src/main.c:479:     int startX = (400 - totalW) / 2;
 479:src/main.c    ****     // µ░┤µ│óµØĪµĀĘÕ╝Å’╝ÜµŚČķÆ¤ + Ķ┐øÕ║”µØĪµĢ┤õĮōÕ×éńø┤Õ▒ģõĖŁ’╝øÕģČÕ«āµĀĘÕ╝ÅµŚČķÆ¤ÕŹĢńŗ¼Õ▒ģõĖŁ
 2562              		.loc 1 479 9 is_stmt 0 view .LVU679
 2563 0464 48BF     		it	mi
 2564 0466 0131     		addmi	r1, r1, #1	@ tmp1218, tmp1218,
 2565 0468 4E10     		asrs	r6, r1, #1	@ startX, tmp1218,
 2566              	.LVL119:
 481:src/main.c    ****     if (barStyle == BAR_WATER) {
 2567              		.loc 1 481 5 is_stmt 1 view .LVU680
 482:src/main.c    ****         int barH = 20;
 2568              		.loc 1 482 5 view .LVU681
 2569              	@ src/main.c:482:     if (barStyle == BAR_WATER) {
 482:src/main.c    ****         int barH = 20;
 2570              		.loc 1 482 8 is_stmt 0 view .LVU682
 2571 046a 6ABB     		cbnz	r2, .L172	@ barStyle.116_329,
 2572              	.LBB265:
 483:src/main.c    ****         int groupGap = 16;
 2573              		.loc 1 483 9 is_stmt 1 view .LVU683
 2574              	.LVL120:
 484:src/main.c    ****         int groupH = ch + groupGap + barH;
 2575              		.loc 1 484 9 view .LVU684
 485:src/main.c    ****         y = (240 - groupH) / 2;
 2576              		.loc 1 485 9 view .LVU685
 486:src/main.c    ****     } else {
 2577              		.loc 1 486 9 view .LVU686
 2578              	@ src/main.c:486:         y = (240 - groupH) / 2;
 486:src/main.c    ****     } else {
 2579              		.loc 1 486 11 is_stmt 0 view .LVU687
 2580 046c 049A     		ldr	r2, [sp, #16]	@ ch, %sfp
 2581 046e D2F1CC02 		rsbs	r2, r2, #204	@ tmp1222, ch,
 2582 0472 2DD4     		bmi	.L342		@,
 2583              	.LVL121:
 2584              	.L175:
 486:src/main.c    ****     } else {
 2585              		.loc 1 486 11 view .LVU688
 2586              	.LBE265:
 2587              	@ src/main.c:488:         y = (240 - ch) / 2;
 488:src/main.c    ****     }
 2588              		.loc 1 488 11 view .LVU689
 2589 0474 5210     		asrs	r2, r2, #1	@ y, tmp1225,
ARM GAS  /var/folders/ym/cl7zt4994p5_9n084fng6gl80000gn/T//ccxpWZpc.s 			page 71


 2590              	.LBB266:
 2591              	.LBB267:
 2592              	@ src/main.c:498:             int colonImgW = (int)(18 * cs);
 498:src/main.c    ****             DrawColon(x - gap + (colonW - colonImgW) / 2, y, cs);
 2593              		.loc 1 498 38 view .LVU690
 2594 0476 B3EE029A 		vmov.f32	s18, #1.8e+1	@ tmp1536,
 2595 047a 0833     		adds	r3, r3, #8	@ _795, cw,
 2596              	.LVL122:
 498:src/main.c    ****             DrawColon(x - gap + (colonW - colonImgW) / 2, y, cs);
 2597              		.loc 1 498 38 view .LVU691
 2598              	.LBE267:
 2599              	.LBE266:
 2600              	.LBE264:
 2601              	.LBE263:
 2602              	.LBB298:
 2603              	.LBB299:
 2604              	.LBB300:
 2605              	.LBB301:
 2606              	.LBB302:
 2607              	.LBB303:
 2608 047c 0127     		movs	r7, #1	@ ivtmp.314,
 2609              	.LBE303:
 2610              	.LBE302:
 2611              	.LBE301:
 2612              	.LBE300:
 2613              	.LBE299:
 2614              	.LBE298:
 2615              	.LBB337:
 2616              	.LBB294:
 2617              	@ src/main.c:488:         y = (240 - ch) / 2;
 488:src/main.c    ****     }
 2618              		.loc 1 488 11 view .LVU692
 2619 047e 09EE902A 		vmov	s19, r2	@ int	@ y, y
 2620              	.LVL123:
 491:src/main.c    ****     for (int i = 0; i < DIGIT_COUNT; i++) {
 2621              		.loc 1 491 5 is_stmt 1 view .LVU693
 492:src/main.c    ****         DrawDigit(x, y, digits[i].value, digits[i].prev, digits[i].progress, digits[i].dir);
 2622              		.loc 1 492 5 view .LVU694
 2623              	.LBB288:
 492:src/main.c    ****         DrawDigit(x, y, digits[i].value, digits[i].prev, digits[i].progress, digits[i].dir);
 2624              		.loc 1 492 10 view .LVU695
 492:src/main.c    ****         DrawDigit(x, y, digits[i].value, digits[i].prev, digits[i].progress, digits[i].dir);
 2625              		.loc 1 492 21 view .LVU696
 2626              	.LBB285:
 2627              	@ src/main.c:497:             float cs = (float)ch / 104.0f;
 497:src/main.c    ****             int colonImgW = (int)(18 * cs);
 2628              		.loc 1 497 19 is_stmt 0 view .LVU697
 2629 0482 DFED218A 		vldr.32	s17, .L392+52	@ tmp1535,
 2630 0486 0393     		str	r3, [sp, #12]	@ _795, %sfp
 2631              	.LVL124:
 2632              	.L183:
 497:src/main.c    ****             int colonImgW = (int)(18 * cs);
 2633              		.loc 1 497 19 view .LVU698
 2634              	.LBE285:
 493:src/main.c    ****         x += cw + gap;
 2635              		.loc 1 493 9 is_stmt 1 view .LVU699
 2636 0488 DAF80C30 		ldr	r3, [r10, #12]	@ MEM[base: _469, offset: 12B], MEM[base: _469, offset: 12B]
ARM GAS  /var/folders/ym/cl7zt4994p5_9n084fng6gl80000gn/T//ccxpWZpc.s 			page 72


 2637 048c 3046     		mov	r0, r6	@, startX
 2638 048e 9AED010A 		vldr.32	s0, [r10, #4]	@, MEM[base: _469, offset: 4B]
 2639 0492 19EE901A 		vmov	r1, s19	@ int	@, y
 2640 0496 0093     		str	r3, [sp]	@ MEM[base: _469, offset: 12B],
 2641              	@ src/main.c:494:         x += cw + gap;
 494:src/main.c    ****         if (i == 1) {
 2642              		.loc 1 494 11 is_stmt 0 view .LVU700
 2643 0498 039B     		ldr	r3, [sp, #12]	@ _795, %sfp
 2644              	@ src/main.c:493:         DrawDigit(x, y, digits[i].value, digits[i].prev, digits[i].progress, digi
 493:src/main.c    ****         x += cw + gap;
 2645              		.loc 1 493 9 view .LVU701
 2646 049a 9AF80020 		ldrb	r2, [r10]	@ zero_extendqisi2	@, MEM[base: _469, offset: 0B]
 2647              	@ src/main.c:494:         x += cw + gap;
 494:src/main.c    ****         if (i == 1) {
 2648              		.loc 1 494 11 view .LVU702
 2649 049e 1E44     		add	r6, r6, r3	@ startX, _795
 2650              	.LVL125:
 2651              	@ src/main.c:493:         DrawDigit(x, y, digits[i].value, digits[i].prev, digits[i].progress, digi
 493:src/main.c    ****         x += cw + gap;
 2652              		.loc 1 493 9 view .LVU703
 2653 04a0 9AF80130 		ldrb	r3, [r10, #1]	@ zero_extendqisi2	@, MEM[base: _469, offset: 1B]
 2654 04a4 FFF7FEFF 		bl	DrawDigit		@
 2655              	.LVL126:
 494:src/main.c    ****         if (i == 1) {
 2656              		.loc 1 494 9 is_stmt 1 view .LVU704
 495:src/main.c    ****             // ÕåÆÕÅĘÕĖ”ńÖĮĶē▓µÅÅĶŠ╣’╝īÕ£©õ╗╗µäÅĶāīµÖ»’╝łÕÉ½ Flood/Snow’╝ēõĖŖķāĮÕÅ»Ķ¦ü
 2657              		.loc 1 495 9 view .LVU705
 2658              	@ src/main.c:495:         if (i == 1) {
 495:src/main.c    ****             // ÕåÆÕÅĘÕĖ”ńÖĮĶē▓µÅÅĶŠ╣’╝īÕ£©õ╗╗µäÅĶāīµÖ»’╝łÕÉ½ Flood/Snow’╝ēõĖŖķāĮÕÅ»Ķ¦ü
 2659              		.loc 1 495 12 is_stmt 0 view .LVU706
 2660 04a8 022F     		cmp	r7, #2	@ ivtmp.314,
 2661 04aa 00F0DA82 		beq	.L361		@,
 492:src/main.c    ****         DrawDigit(x, y, digits[i].value, digits[i].prev, digits[i].progress, digits[i].dir);
 2662              		.loc 1 492 38 is_stmt 1 view .LVU707
 2663              	.LVL127:
 492:src/main.c    ****         DrawDigit(x, y, digits[i].value, digits[i].prev, digits[i].progress, digits[i].dir);
 2664              		.loc 1 492 21 view .LVU708
 2665              	@ src/main.c:492:     for (int i = 0; i < DIGIT_COUNT; i++) {
 492:src/main.c    ****         DrawDigit(x, y, digits[i].value, digits[i].prev, digits[i].progress, digits[i].dir);
 2666              		.loc 1 492 5 is_stmt 0 view .LVU709
 2667 04ae 042F     		cmp	r7, #4	@ ivtmp.314,
 2668 04b0 7AD0     		beq	.L168		@,
 2669              	.LVL128:
 2670              	.L182:
 492:src/main.c    ****         DrawDigit(x, y, digits[i].value, digits[i].prev, digits[i].progress, digits[i].dir);
 2671              		.loc 1 492 5 view .LVU710
 2672 04b2 0AF1100A 		add	r10, r10, #16	@ ivtmp.313, ivtmp.313,
 2673 04b6 0137     		adds	r7, r7, #1	@ ivtmp.314, ivtmp.314,
 2674 04b8 E6E7     		b	.L183		@
 2675              	.LVL129:
 2676              	.L84:
 492:src/main.c    ****         DrawDigit(x, y, digits[i].value, digits[i].prev, digits[i].progress, digits[i].dir);
 2677              		.loc 1 492 5 view .LVU711
 2678              	.LBE288:
 2679              	.LBE294:
 2680              	.LBE337:
 2681              	.LBE261:
ARM GAS  /var/folders/ym/cl7zt4994p5_9n084fng6gl80000gn/T//ccxpWZpc.s 			page 73


 2682              	.LBE260:
 854:src/main.c    **** 
 2683              		.loc 1 854 5 is_stmt 1 view .LVU712
 2684              	.LBB454:
 186:src/main.c    **** {
 2685              		.loc 1 186 13 view .LVU713
 2686              	.LBB240:
 200:src/main.c    **** 		t->secondsLeft -= dt;
 2687              		.loc 1 200 2 view .LVU714
 2688              	@ src/main.c:200: 	if (t->state == TIMER_RUNNING) {
 200:src/main.c    **** 		t->secondsLeft -= dt;
 2689              		.loc 1 200 5 is_stmt 0 view .LVU715
 2690 04ba 012B     		cmp	r3, #1	@ _95,
 2691 04bc 3FF4BAAE 		beq	.L83		@,
 208:src/main.c    ****         t->secondsLeft = t->totalSeconds;
 2692              		.loc 1 208 5 is_stmt 1 view .LVU716
 2693              	@ src/main.c:208:     if (t->state == TIMER_READY) {
 208:src/main.c    ****         t->secondsLeft = t->totalSeconds;
 2694              		.loc 1 208 8 is_stmt 0 view .LVU717
 2695 04c0 002B     		cmp	r3, #0	@ _95
 2696 04c2 3FF407AE 		beq	.L79	@
 2697 04c6 C2E6     		b	.L82		@
 2698              	.LVL130:
 2699              	.L172:
 208:src/main.c    ****         t->secondsLeft = t->totalSeconds;
 2700              		.loc 1 208 8 view .LVU718
 2701              	.LBE240:
 2702              	.LBE454:
 2703              	.LBB455:
 2704              	.LBB446:
 2705              	.LBB338:
 2706              	.LBB295:
 488:src/main.c    ****     }
 2707              		.loc 1 488 9 is_stmt 1 view .LVU719
 2708              	@ src/main.c:488:         y = (240 - ch) / 2;
 488:src/main.c    ****     }
 2709              		.loc 1 488 11 is_stmt 0 view .LVU720
 2710 04c8 049A     		ldr	r2, [sp, #16]	@ ch, %sfp
 2711 04ca D2F1F002 		rsbs	r2, r2, #240	@ tmp1225, ch,
 2712 04ce D1D5     		bpl	.L175		@,
 2713              	.L342:
 2714 04d0 0132     		adds	r2, r2, #1	@ tmp1225, tmp1225,
 2715 04d2 CFE7     		b	.L175		@
 2716              	.L393:
 2717              		.align	2
 2718              	.L392:
 2719 04d4 00000000 		.word	.LANCHOR3
 2720 04d8 00000000 		.word	.LANCHOR16
 2721 04dc 00000000 		.word	.LANCHOR17
 2722 04e0 00000000 		.word	.LANCHOR20
 2723 04e4 00000000 		.word	.LANCHOR18
 2724 04e8 00000000 		.word	.LANCHOR2
 2725 04ec 89888888 		.word	-2004318071
 2726 04f0 00000000 		.word	.LANCHOR23
 2727 04f4 00000000 		.word	.LC1
 2728 04f8 9A99193F 		.word	1058642330
 2729 04fc 00000000 		.word	.LANCHOR9
ARM GAS  /var/folders/ym/cl7zt4994p5_9n084fng6gl80000gn/T//ccxpWZpc.s 			page 74


 2730 0500 00000000 		.word	.LANCHOR10
 2731 0504 00000000 		.word	.LANCHOR8
 2732 0508 0000D042 		.word	1120927744
 2733 050c 00000000 		.word	.LANCHOR24
 2734              	.LVL131:
 2735              	.L360:
 2736              	.LBB289:
 438:src/main.c    ****             digitScale = 1.1f;
 2737              		.loc 1 438 9 is_stmt 1 view .LVU721
 2738              	@ src/main.c:438:         if (digits[0].value == '0' && digits[1].value == '0') {
 438:src/main.c    ****             digitScale = 1.1f;
 2739              		.loc 1 438 22 is_stmt 0 view .LVU722
 2740 0510 BC4B     		ldr	r3, .L394	@ tmp1706,
 2741 0512 1A78     		ldrb	r2, [r3]	@ zero_extendqisi2	@ _330, digits[0].value
 2742              	@ src/main.c:438:         if (digits[0].value == '0' && digits[1].value == '0') {
 438:src/main.c    ****             digitScale = 1.1f;
 2743              		.loc 1 438 12 view .LVU723
 2744 0514 302A     		cmp	r2, #48	@ _330,
 2745 0516 40F04882 		bne	.L165		@,
 2746              	@ src/main.c:438:         if (digits[0].value == '0' && digits[1].value == '0') {
 438:src/main.c    ****             digitScale = 1.1f;
 2747              		.loc 1 438 36 view .LVU724
 2748 051a 1B7C     		ldrb	r3, [r3, #16]	@ zero_extendqisi2	@ digits[1].value, digits[1].value
 2749 051c 302B     		cmp	r3, #48	@ digits[1].value,
 2750 051e 40F04482 		bne	.L165		@,
 2751              	.LBB290:
 439:src/main.c    ****             int cw = (int)(cardW * digitScale);
 2752              		.loc 1 439 13 is_stmt 1 view .LVU725
 2753              	@ src/main.c:440:             int cw = (int)(cardW * digitScale);
 440:src/main.c    ****             int ch = (int)(halfH * digitScale) * 2;
 2754              		.loc 1 440 34 is_stmt 0 view .LVU726
 2755 0522 B94B     		ldr	r3, .L394+4	@ tmp1111,
 2756              	@ src/main.c:439:             digitScale = 1.1f;
 439:src/main.c    ****             int cw = (int)(cardW * digitScale);
 2757              		.loc 1 439 24 view .LVU727
 2758 0524 9FEDB97A 		vldr.32	s14, .L394+8	@ tmp1110,
 2759              	@ src/main.c:440:             int cw = (int)(cardW * digitScale);
 440:src/main.c    ****             int ch = (int)(halfH * digitScale) * 2;
 2760              		.loc 1 440 34 view .LVU728
 2761 0528 D3ED007A 		vldr.32	s15, [r3]	@ int	@ cardW, cardW
 2762              	@ src/main.c:439:             digitScale = 1.1f;
 439:src/main.c    ****             int cw = (int)(cardW * digitScale);
 2763              		.loc 1 439 24 view .LVU729
 2764 052c B84B     		ldr	r3, .L394+12	@ tmp1109,
 2765              	@ src/main.c:440:             int cw = (int)(cardW * digitScale);
 440:src/main.c    ****             int ch = (int)(halfH * digitScale) * 2;
 2766              		.loc 1 440 34 view .LVU730
 2767 052e F8EEE77A 		vcvt.f32.s32	s15, s15	@ tmp1112, cardW
 2768              	@ src/main.c:447:             DrawDigit(startX, rowY, digits[2].value, digits[2].prev, digits[2].pr
 447:src/main.c    ****             DrawDigit(startX + cw + colGap, rowY, digits[3].value, digits[3].prev, digits[3].progre
 2769              		.loc 1 447 13 view .LVU731
 2770 0532 B44E     		ldr	r6, .L394	@ tmp1710,
 2771              	@ src/main.c:439:             digitScale = 1.1f;
 439:src/main.c    ****             int cw = (int)(cardW * digitScale);
 2772              		.loc 1 439 24 view .LVU732
 2773 0534 83ED007A 		vstr.32	s14, [r3]	@ tmp1110, digitScale
 440:src/main.c    ****             int ch = (int)(halfH * digitScale) * 2;
ARM GAS  /var/folders/ym/cl7zt4994p5_9n084fng6gl80000gn/T//ccxpWZpc.s 			page 75


 2774              		.loc 1 440 13 is_stmt 1 view .LVU733
 2775              	@ src/main.c:441:             int ch = (int)(halfH * digitScale) * 2;
 441:src/main.c    ****             int colGap = (int)(8 * digitScale);
 2776              		.loc 1 441 34 is_stmt 0 view .LVU734
 2777 0538 B64B     		ldr	r3, .L394+16	@ tmp1121,
 2778              	@ src/main.c:440:             int cw = (int)(cardW * digitScale);
 440:src/main.c    ****             int ch = (int)(halfH * digitScale) * 2;
 2779              		.loc 1 440 34 view .LVU735
 2780 053a 67EE877A 		vmul.f32	s15, s15, s14	@ tmp1114, tmp1112, tmp1110
 2781              	@ src/main.c:441:             int ch = (int)(halfH * digitScale) * 2;
 441:src/main.c    ****             int colGap = (int)(8 * digitScale);
 2782              		.loc 1 441 34 view .LVU736
 2783 053e 9FEDB37A 		vldr.32	s14, .L394+8	@ tmp1125,
 2784              	@ src/main.c:447:             DrawDigit(startX, rowY, digits[2].value, digits[2].prev, digits[2].pr
 447:src/main.c    ****             DrawDigit(startX + cw + colGap, rowY, digits[3].value, digits[3].prev, digits[3].progre
 2785              		.loc 1 447 13 view .LVU737
 2786 0542 96ED090A 		vldr.32	s0, [r6, #36]	@, digits[2].progress
 2787              	@ src/main.c:440:             int cw = (int)(cardW * digitScale);
 440:src/main.c    ****             int ch = (int)(halfH * digitScale) * 2;
 2788              		.loc 1 440 17 view .LVU738
 2789 0546 FDEEE77A 		vcvt.s32.f32	s15, s15	@ cw, tmp1114
 2790 054a 17EE905A 		vmov	r5, s15	@ int	@ cw, cw
 2791              	.LVL132:
 441:src/main.c    ****             int colGap = (int)(8 * digitScale);
 2792              		.loc 1 441 13 is_stmt 1 view .LVU739
 442:src/main.c    ****             int rowW = 2 * cw + colGap;
 2793              		.loc 1 442 13 view .LVU740
 443:src/main.c    ****             int startX = (400 - rowW) / 2;
 2794              		.loc 1 443 13 view .LVU741
 444:src/main.c    ****             int rowY = (240 - ch) / 2;   // õ╗źÕ£åńÄ»õĖŁÕ┐āÕ×éńø┤Õ▒ģõĖŁ
 2795              		.loc 1 444 13 view .LVU742
 2796              	@ src/main.c:441:             int ch = (int)(halfH * digitScale) * 2;
 441:src/main.c    ****             int colGap = (int)(8 * digitScale);
 2797              		.loc 1 441 34 is_stmt 0 view .LVU743
 2798 054e D3ED007A 		vldr.32	s15, [r3]	@ int	@ halfH, halfH
 2799              	@ src/main.c:447:             DrawDigit(startX, rowY, digits[2].value, digits[2].prev, digits[2].pr
 447:src/main.c    ****             DrawDigit(startX + cw + colGap, rowY, digits[3].value, digits[3].prev, digits[3].progre
 2800              		.loc 1 447 13 view .LVU744
 2801 0552 F36A     		ldr	r3, [r6, #44]	@ digits[2].dir, digits[2].dir
 2802              	@ src/main.c:441:             int ch = (int)(halfH * digitScale) * 2;
 441:src/main.c    ****             int colGap = (int)(8 * digitScale);
 2803              		.loc 1 441 34 view .LVU745
 2804 0554 F8EEE77A 		vcvt.f32.s32	s15, s15	@ tmp1122, halfH
 2805              	@ src/main.c:443:             int rowW = 2 * cw + colGap;
 443:src/main.c    ****             int startX = (400 - rowW) / 2;
 2806              		.loc 1 443 26 view .LVU746
 2807 0558 6C00     		lsls	r4, r5, #1	@ tmp1116, cw,
 2808              	@ src/main.c:447:             DrawDigit(startX, rowY, digits[2].value, digits[2].prev, digits[2].pr
 447:src/main.c    ****             DrawDigit(startX + cw + colGap, rowY, digits[3].value, digits[3].prev, digits[3].progre
 2809              		.loc 1 447 13 view .LVU747
 2810 055a 0093     		str	r3, [sp]	@ digits[2].dir,
 2811              	@ src/main.c:444:             int startX = (400 - rowW) / 2;
 444:src/main.c    ****             int rowY = (240 - ch) / 2;   // õ╗źÕ£åńÄ»õĖŁÕ┐āÕ×éńø┤Õ▒ģõĖŁ
 2812              		.loc 1 444 17 view .LVU748
 2813 055c D4F5C474 		rsbs	r4, r4, #392	@ tmp1119, tmp1116,
 2814              	@ src/main.c:447:             DrawDigit(startX, rowY, digits[2].value, digits[2].prev, digits[2].pr
 447:src/main.c    ****             DrawDigit(startX + cw + colGap, rowY, digits[3].value, digits[3].prev, digits[3].progre
ARM GAS  /var/folders/ym/cl7zt4994p5_9n084fng6gl80000gn/T//ccxpWZpc.s 			page 76


 2815              		.loc 1 447 13 view .LVU749
 2816 0560 96F82130 		ldrb	r3, [r6, #33]	@ zero_extendqisi2	@, digits[2].prev
 2817              	@ src/main.c:441:             int ch = (int)(halfH * digitScale) * 2;
 441:src/main.c    ****             int colGap = (int)(8 * digitScale);
 2818              		.loc 1 441 34 view .LVU750
 2819 0564 67EE877A 		vmul.f32	s15, s15, s14	@ tmp1124, tmp1122, tmp1125
 2820              	@ src/main.c:447:             DrawDigit(startX, rowY, digits[2].value, digits[2].prev, digits[2].pr
 447:src/main.c    ****             DrawDigit(startX + cw + colGap, rowY, digits[3].value, digits[3].prev, digits[3].progre
 2821              		.loc 1 447 13 view .LVU751
 2822 0568 96F82020 		ldrb	r2, [r6, #32]	@ zero_extendqisi2	@, digits[2].value
 2823              	@ src/main.c:444:             int startX = (400 - rowW) / 2;
 444:src/main.c    ****             int rowY = (240 - ch) / 2;   // õ╗źÕ£åńÄ»õĖŁÕ┐āÕ×éńø┤Õ▒ģõĖŁ
 2824              		.loc 1 444 17 view .LVU752
 2825 056c 48BF     		it	mi
 2826 056e 0134     		addmi	r4, r4, #1	@ tmp1119, tmp1119,
 2827              	@ src/main.c:441:             int ch = (int)(halfH * digitScale) * 2;
 441:src/main.c    ****             int colGap = (int)(8 * digitScale);
 2828              		.loc 1 441 22 view .LVU753
 2829 0570 FDEEE77A 		vcvt.s32.f32	s15, s15	@ tmp1126, tmp1124
 2830              	@ src/main.c:444:             int startX = (400 - rowW) / 2;
 444:src/main.c    ****             int rowY = (240 - ch) / 2;   // õ╗źÕ£åńÄ»õĖŁÕ┐āÕ×éńø┤Õ▒ģõĖŁ
 2831              		.loc 1 444 17 view .LVU754
 2832 0574 6410     		asrs	r4, r4, #1	@ startX, tmp1119,
 2833              	.LVL133:
 445:src/main.c    **** 
 2834              		.loc 1 445 13 is_stmt 1 view .LVU755
 2835              	@ src/main.c:447:             DrawDigit(startX, rowY, digits[2].value, digits[2].prev, digits[2].pr
 447:src/main.c    ****             DrawDigit(startX + cw + colGap, rowY, digits[3].value, digits[3].prev, digits[3].progre
 2836              		.loc 1 447 13 is_stmt 0 view .LVU756
 2837 0576 2046     		mov	r0, r4	@, startX
 2838              	@ src/main.c:441:             int ch = (int)(halfH * digitScale) * 2;
 441:src/main.c    ****             int colGap = (int)(8 * digitScale);
 2839              		.loc 1 441 22 view .LVU757
 2840 0578 17EE901A 		vmov	r1, s15	@ int	@ tmp1126, tmp1126
 2841              	@ src/main.c:441:             int ch = (int)(halfH * digitScale) * 2;
 441:src/main.c    ****             int colGap = (int)(8 * digitScale);
 2842              		.loc 1 441 17 view .LVU758
 2843 057c 4900     		lsls	r1, r1, #1	@ ch, tmp1126,
 2844              	@ src/main.c:445:             int rowY = (240 - ch) / 2;   // õ╗źÕ£åńÄ»õĖŁÕ┐āÕ×éńø┤Õ▒ģõĖŁ
 445:src/main.c    **** 
 2845              		.loc 1 445 17 view .LVU759
 2846 057e D1F1F001 		rsbs	r1, r1, #240	@ tmp1129, ch,
 2847 0582 48BF     		it	mi
 2848 0584 0131     		addmi	r1, r1, #1	@ tmp1129, tmp1129,
 2849 0586 4910     		asrs	r1, r1, #1	@ tmp1130, tmp1129,
 2850              	.LVL134:
 447:src/main.c    ****             DrawDigit(startX + cw + colGap, rowY, digits[3].value, digits[3].prev, digits[3].progre
 2851              		.loc 1 447 13 is_stmt 1 view .LVU760
 2852 0588 0391     		str	r1, [sp, #12]	@ tmp1130, %sfp
 2853 058a FFF7FEFF 		bl	DrawDigit		@
 2854              	.LVL135:
 448:src/main.c    ****             return;
 2855              		.loc 1 448 13 view .LVU761
 2856 058e F36B     		ldr	r3, [r6, #60]	@ digits[3].dir, digits[3].dir
 2857              	@ src/main.c:448:             DrawDigit(startX + cw + colGap, rowY, digits[3].value, digits[3].prev
 448:src/main.c    ****             return;
 2858              		.loc 1 448 30 is_stmt 0 view .LVU762
ARM GAS  /var/folders/ym/cl7zt4994p5_9n084fng6gl80000gn/T//ccxpWZpc.s 			page 77


 2859 0590 2819     		adds	r0, r5, r4	@ tmp1145, cw, startX
 2860              	@ src/main.c:448:             DrawDigit(startX + cw + colGap, rowY, digits[3].value, digits[3].prev
 448:src/main.c    ****             return;
 2861              		.loc 1 448 13 view .LVU763
 2862 0592 96ED0D0A 		vldr.32	s0, [r6, #52]	@, digits[3].progress
 2863 0596 0399     		ldr	r1, [sp, #12]	@ tmp1130, %sfp
 2864 0598 0830     		adds	r0, r0, #8	@, tmp1145,
 2865 059a 0093     		str	r3, [sp]	@ digits[3].dir,
 2866 059c 96F83130 		ldrb	r3, [r6, #49]	@ zero_extendqisi2	@, digits[3].prev
 2867 05a0 96F83020 		ldrb	r2, [r6, #48]	@ zero_extendqisi2	@, digits[3].value
 2868 05a4 FFF7FEFF 		bl	DrawDigit		@
 2869              	.LVL136:
 449:src/main.c    ****         }
 2870              		.loc 1 449 13 is_stmt 1 view .LVU764
 2871              	.L168:
 449:src/main.c    ****         }
 2872              		.loc 1 449 13 is_stmt 0 view .LVU765
 2873              	.LBE290:
 2874              	.LBE289:
 2875              	.LBE295:
 2876              	.LBE338:
 835:src/main.c    **** 
 2877              		.loc 1 835 5 is_stmt 1 view .LVU766
 2878              	.LBB339:
 2879              	.LBI339:
 748:src/main.c    **** {
 2880              		.loc 1 748 13 view .LVU767
 2881              	.LBB340:
 750:src/main.c    ****         DrawWaterBar();
 2882              		.loc 1 750 5 view .LVU768
 2883              	@ src/main.c:750:     if (barStyle == BAR_WATER) {
 750:src/main.c    ****         DrawWaterBar();
 2884              		.loc 1 750 18 is_stmt 0 view .LVU769
 2885 05a8 029B     		ldr	r3, [sp, #8]	@ tmp1515, %sfp
 2886 05aa 1E68     		ldr	r6, [r3]	@ row, barStyle
 2887              	@ src/main.c:750:     if (barStyle == BAR_WATER) {
 750:src/main.c    ****         DrawWaterBar();
 2888              		.loc 1 750 8 view .LVU770
 2889 05ac 002E     		cmp	r6, #0	@ row
 2890 05ae 00F0F780 		beq	.L362	@
 752:src/main.c    ****         DrawRing();
 2891              		.loc 1 752 12 is_stmt 1 view .LVU771
 2892              	@ src/main.c:752:     } else if (barStyle == BAR_RING) {
 752:src/main.c    ****         DrawRing();
 2893              		.loc 1 752 15 is_stmt 0 view .LVU772
 2894 05b2 022E     		cmp	r6, #2	@ row,
 2895 05b4 00F04785 		beq	.L363		@,
 2896              	.L203:
 2897              	.LBE340:
 2898              	.LBE339:
 837:src/main.c    ****         DrawPresetList();
 2899              		.loc 1 837 5 is_stmt 1 view .LVU773
 2900              	@ src/main.c:837:     if (timer.state == TIMER_READY) {
 837:src/main.c    ****         DrawPresetList();
 2901              		.loc 1 837 8 is_stmt 0 view .LVU774
 2902 05b8 9BF80830 		ldrb	r3, [fp, #8]	@ zero_extendqisi2	@ timer.state, timer.state
 2903 05bc 13B3     		cbz	r3, .L364	@ timer.state,
ARM GAS  /var/folders/ym/cl7zt4994p5_9n084fng6gl80000gn/T//ccxpWZpc.s 			page 78


 2904              	.L300:
 2905              	.LBE446:
 2906              	.LBE455:
 2907              	@ src/main.c:906: }
 904:src/main.c    **** 
 905:src/main.c    ****     return 1;
 906:src/main.c    **** }
 2908              		.loc 1 906 1 view .LVU775
 2909 05be 0120     		movs	r0, #1	@,
 2910 05c0 0FB0     		add	sp, sp, #60	@,,
 2911              	.LCFI29:
 2912              		.cfi_remember_state
 2913              		.cfi_def_cfa_offset 76
 2914              		@ sp needed	@
 2915 05c2 BDEC0A8B 		vldm	sp!, {d8-d12}	@,
 2916              	.LCFI30:
 2917              		.cfi_restore 88
 2918              		.cfi_restore 89
 2919              		.cfi_restore 86
 2920              		.cfi_restore 87
 2921              		.cfi_restore 84
 2922              		.cfi_restore 85
 2923              		.cfi_restore 82
 2924              		.cfi_restore 83
 2925              		.cfi_restore 80
 2926              		.cfi_restore 81
 2927              		.cfi_def_cfa_offset 36
 2928 05c6 BDE8F08F 		pop	{r4, r5, r6, r7, r8, r9, r10, fp, pc}	@
 2929              	.LVL137:
 2930              	.L355:
 2931              	.LCFI31:
 2932              		.cfi_restore_state
 2933              	.LBB456:
 2934              	.LBB259:
 2935              	.LBB258:
 2936              	@ src/main.c:334:             digits[i].progress += dt * FLIP_SPEED;
 334:src/main.c    ****             if (digits[i].progress >= 1.0f) {
 2937              		.loc 1 334 32 view .LVU776
 2938 05ca C3ED017A 		vstr.32	s15, [r3, #4]	@ _201, MEM[base: _906, offset: 4B]
 2939 05ce F9E6     		b	.L121		@
 2940              	.LVL138:
 2941              	.L117:
 334:src/main.c    ****             if (digits[i].progress >= 1.0f) {
 2942              		.loc 1 334 32 view .LVU777
 2943              	.LBE258:
 2944              	@ src/main.c:322:     int dir = (prevSeconds >= 0.0f && timer.secondsLeft > prevSeconds) ? -1 : 1;
 322:src/main.c    ****     prevSeconds = timer.secondsLeft;
 2945              		.loc 1 322 77 view .LVU778
 2946 05d0 0126     		movs	r6, #1	@ iftmp.95_197,
 2947 05d2 D0E6     		b	.L118		@
 2948              	.LVL139:
 2949              	.L96:
 322:src/main.c    ****     prevSeconds = timer.secondsLeft;
 2950              		.loc 1 322 77 view .LVU779
 2951              	.LBE259:
 2952              	.LBE456:
 865:src/main.c    ****     }
ARM GAS  /var/folders/ym/cl7zt4994p5_9n084fng6gl80000gn/T//ccxpWZpc.s 			page 79


 2953              		.loc 1 865 9 is_stmt 1 view .LVU780
 2954              	@ src/main.c:865:         pauseBlink = 0.0f;
 865:src/main.c    ****     }
 2955              		.loc 1 865 20 is_stmt 0 view .LVU781
 2956 05d4 904A     		ldr	r2, .L394+20	@ tmp1508,
 2957              	@ src/main.c:869:     if (timer.state == TIMER_FINISHED && prevState != TIMER_FINISHED) {
 869:src/main.c    ****         TriggerFinish();
 2958              		.loc 1 869 8 view .LVU782
 2959 05d6 032B     		cmp	r3, #3	@ pretmp_932,
 2960              	@ src/main.c:865:         pauseBlink = 0.0f;
 865:src/main.c    ****     }
 2961              		.loc 1 865 20 view .LVU783
 2962 05d8 1146     		mov	r1, r2	@ tmp1508, tmp1508
 2963 05da 0492     		str	r2, [sp, #16]	@ tmp1508, %sfp
 2964 05dc 4FF00002 		mov	r2, #0	@ tmp846,
 2965 05e0 0A60     		str	r2, [r1]	@ float	@ tmp846, pauseBlink
 869:src/main.c    ****         TriggerFinish();
 2966              		.loc 1 869 5 is_stmt 1 view .LVU784
 2967              	@ src/main.c:869:     if (timer.state == TIMER_FINISHED && prevState != TIMER_FINISHED) {
 869:src/main.c    ****         TriggerFinish();
 2968              		.loc 1 869 8 is_stmt 0 view .LVU785
 2969 05e2 7FF451AE 		bne	.L99		@,
 2970              	@ src/main.c:869:     if (timer.state == TIMER_FINISHED && prevState != TIMER_FINISHED) {
 869:src/main.c    ****         TriggerFinish();
 2971              		.loc 1 869 52 discriminator 1 view .LVU786
 2972 05e6 8D4D     		ldr	r5, .L394+24	@ tmp1509,
 2973              	@ src/main.c:869:     if (timer.state == TIMER_FINISHED && prevState != TIMER_FINISHED) {
 869:src/main.c    ****         TriggerFinish();
 2974              		.loc 1 869 39 discriminator 1 view .LVU787
 2975 05e8 2B78     		ldrb	r3, [r5]	@ zero_extendqisi2	@ prevState, prevState
 2976 05ea 032B     		cmp	r3, #3	@ prevState,
 2977 05ec 40F0D583 		bne	.L323		@,
 2978 05f0 8B4C     		ldr	r4, .L394+28	@ tmp1510,
 2979 05f2 8C4E     		ldr	r6, .L394+32	@ tmp1494,
 2980              	.L101:
 2981              	@ src/main.c:873:     if (prevState == TIMER_FINISHED && timer.state != TIMER_FINISHED) {
 873:src/main.c    ****         flashTimer = 0.0f;
 2982              		.loc 1 873 45 view .LVU788
 2983 05f4 9BF80830 		ldrb	r3, [fp, #8]	@ zero_extendqisi2	@ prephitmp_778, timer.state
 2984              	@ src/main.c:873:     if (prevState == TIMER_FINISHED && timer.state != TIMER_FINISHED) {
 873:src/main.c    ****         flashTimer = 0.0f;
 2985              		.loc 1 873 37 view .LVU789
 2986 05f8 032B     		cmp	r3, #3	@ prephitmp_778,
 2987 05fa 7FF481AD 		bne	.L105		@,
 2988 05fe 3268     		ldr	r2, [r6]	@ prephitmp_776, chimeStep
 2989 0600 511E     		subs	r1, r2, #1	@ prephitmp_767, prephitmp_776,
 2990 0602 4CE6     		b	.L106		@
 2991              	.LVL140:
 2992              	.L364:
 2993              	.LBB457:
 2994              	.LBB447:
 838:src/main.c    ****     }
 2995              		.loc 1 838 9 is_stmt 1 view .LVU790
 2996              	.LBB379:
 2997              	.LBI379:
 776:src/main.c    **** {
 2998              		.loc 1 776 13 view .LVU791
ARM GAS  /var/folders/ym/cl7zt4994p5_9n084fng6gl80000gn/T//ccxpWZpc.s 			page 80


 2999              	.LBB380:
 778:src/main.c    ****     pd->graphics->setFont(uiFont);
 3000              		.loc 1 778 5 view .LVU792
 3001              	@ src/main.c:778:     if (!uiFont) return;
 778:src/main.c    ****     pd->graphics->setFont(uiFont);
 3002              		.loc 1 778 9 is_stmt 0 view .LVU793
 3003 0604 884C     		ldr	r4, .L394+36	@ tmp1778,
 3004 0606 2068     		ldr	r0, [r4]	@ uiFont.167_536, uiFont
 3005              	@ src/main.c:778:     if (!uiFont) return;
 778:src/main.c    ****     pd->graphics->setFont(uiFont);
 3006              		.loc 1 778 8 view .LVU794
 3007 0608 0028     		cmp	r0, #0	@ uiFont.167_536
 3008 060a D8D0     		beq	.L300	@
 779:src/main.c    **** 
 3009              		.loc 1 779 5 is_stmt 1 view .LVU795
 3010              	@ src/main.c:779:     pd->graphics->setFont(uiFont);
 779:src/main.c    **** 
 3011              		.loc 1 779 7 is_stmt 0 view .LVU796
 3012 060c D9F80030 		ldr	r3, [r9]	@ pd, pd
 3013              	@ src/main.c:784:     int startY = (240 - totalH) / 2;
 784:src/main.c    ****     int colCenter = 378;   // µĢ░ÕŁŚÕłŚńÜäµ░┤Õ╣│õĖŁÕ┐ā
 3014              		.loc 1 784 9 view .LVU797
 3015 0610 3C25     		movs	r5, #60	@ prephitmp_760,
 3016 0612 864A     		ldr	r2, .L394+40	@ ivtmp.274,
 3017              	@ src/main.c:779:     pd->graphics->setFont(uiFont);
 779:src/main.c    **** 
 3018              		.loc 1 779 17 view .LVU798
 3019 0614 9B68     		ldr	r3, [r3, #8]	@ pd.168_537->graphics, pd.168_537->graphics
 3020 0616 0292     		str	r2, [sp, #8]	@ ivtmp.274, %sfp
